(lp1
(S'Black'
p2
I1
(lp3
(I134
I99
I134
I100
tp4
a(I134
I100
I134
I102
tp5
a(I134
I102
I134
I104
tp6
a(I134
I104
I134
I106
tp7
a(I134
I106
I134
I110
tp8
a(I134
I110
I135
I113
tp9
a(I135
I113
I138
I118
tp10
a(I138
I118
I140
I123
tp11
a(I140
I123
I143
I129
tp12
a(I143
I129
I153
I143
tp13
a(I153
I143
I161
I152
tp14
a(I161
I152
I171
I161
tp15
a(I171
I161
I180
I168
tp16
a(I180
I168
I187
I174
tp17
a(I187
I174
I193
I177
tp18
a(I193
I177
I200
I183
tp19
a(I200
I183
I207
I188
tp20
a(I207
I188
I214
I194
tp21
a(I214
I194
I221
I201
tp22
a(I221
I201
I225
I206
tp23
a(I225
I206
I229
I211
tp24
a(I229
I211
I232
I217
tp25
a(I232
I217
I234
I220
tp26
a(I234
I220
I235
I223
tp27
a(I235
I223
I235
I228
tp28
a(I235
I228
I235
I232
tp29
a(I235
I232
I235
I235
tp30
a(I235
I235
I235
I241
tp31
a(I235
I241
I232
I243
tp32
a(I232
I243
I230
I247
tp33
a(I230
I247
I228
I250
tp34
a(I228
I250
I225
I252
tp35
a(I225
I252
I221
I255
tp36
a(I221
I255
I216
I256
tp37
a(I216
I256
I213
I257
tp38
a(I213
I257
I210
I257
tp39
a(I210
I257
I206
I257
tp40
a(I206
I257
I203
I257
tp41
a(I203
I257
I199
I257
tp42
a(I199
I257
I195
I257
tp43
a(I195
I257
I191
I256
tp44
a(I191
I256
I185
I255
tp45
a(I185
I255
I181
I253
tp46
a(I181
I253
I177
I251
tp47
a(I177
I251
I173
I249
tp48
a(I173
I249
I169
I246
tp49
a(I169
I246
I162
I243
tp50
a(I162
I243
I160
I240
tp51
a(I160
I240
I158
I238
tp52
a(I158
I238
I156
I236
tp53
a(I156
I236
I155
I234
tp54
a(I155
I234
I153
I230
tp55
a(I153
I230
I152
I227
tp56
a(I152
I227
I151
I223
tp57
a(I151
I223
I150
I219
tp58
a(I150
I219
I149
I214
tp59
a(I149
I214
I148
I211
tp60
a(I148
I211
I148
I206
tp61
a(I148
I206
I148
I202
tp62
a(I148
I202
I148
I199
tp63
a(I148
I199
I148
I196
tp64
a(I148
I196
I150
I192
tp65
a(I150
I192
I153
I190
tp66
a(I153
I190
I157
I188
tp67
a(I157
I188
I163
I185
tp68
a(I163
I185
I176
I184
tp69
a(I176
I184
I187
I182
tp70
a(I187
I182
I200
I182
tp71
a(I200
I182
I210
I182
tp72
a(I210
I182
I223
I180
tp73
a(I223
I180
I234
I180
tp74
a(I234
I180
I244
I180
tp75
a(I244
I180
I250
I180
tp76
a(I250
I180
I255
I180
tp77
a(I255
I180
I259
I180
tp78
a(I259
I180
I260
I180
tp79
a(I260
I180
I261
I181
tp80
atp81
a(g2
I1
(lp82
(I361
I107
I356
I107
tp83
a(I356
I107
I351
I107
tp84
a(I351
I107
I348
I107
tp85
a(I348
I107
I343
I110
tp86
a(I343
I110
I338
I114
tp87
a(I338
I114
I332
I116
tp88
a(I332
I116
I322
I126
tp89
a(I322
I126
I316
I133
tp90
a(I316
I133
I310
I142
tp91
a(I310
I142
I306
I152
tp92
a(I306
I152
I303
I163
tp93
a(I303
I163
I301
I173
tp94
a(I301
I173
I301
I184
tp95
a(I301
I184
I302
I196
tp96
a(I302
I196
I304
I207
tp97
a(I304
I207
I309
I220
tp98
a(I309
I220
I313
I230
tp99
a(I313
I230
I321
I242
tp100
a(I321
I242
I331
I251
tp101
a(I331
I251
I346
I264
tp102
a(I346
I264
I362
I273
tp103
a(I362
I273
I377
I282
tp104
a(I377
I282
I396
I289
tp105
a(I396
I289
I412
I293
tp106
a(I412
I293
I425
I297
tp107
a(I425
I297
I435
I300
tp108
a(I435
I300
I437
I301
tp109
a(I437
I301
I437
I302
tp110
a(I437
I302
I437
I303
tp111
a(I437
I303
I436
I304
tp112
a(I436
I304
I434
I305
tp113
a(I434
I305
I432
I306
tp114
a(I432
I306
I429
I306
tp115
a(I429
I306
I422
I307
tp116
a(I422
I307
I414
I307
tp117
a(I414
I307
I401
I306
tp118
a(I401
I306
I388
I306
tp119
a(I388
I306
I369
I304
tp120
a(I369
I304
I351
I303
tp121
a(I351
I303
I318
I300
tp122
a(I318
I300
I302
I299
tp123
a(I302
I299
I284
I297
tp124
a(I284
I297
I273
I294
tp125
a(I273
I294
I265
I291
tp126
a(I265
I291
I260
I289
tp127
a(I260
I289
I258
I286
tp128
a(I258
I286
I257
I283
tp129
a(I257
I283
I257
I281
tp130
a(I257
I281
I256
I276
tp131
a(I256
I276
I255
I271
tp132
a(I255
I271
I255
I263
tp133
a(I255
I263
I253
I247
tp134
a(I253
I247
I253
I232
tp135
a(I253
I232
I253
I216
tp136
a(I253
I216
I254
I197
tp137
a(I254
I197
I257
I178
tp138
a(I257
I178
I262
I165
tp139
a(I262
I165
I267
I150
tp140
a(I267
I150
I284
I128
tp141
a(I284
I128
I296
I115
tp142
a(I296
I115
I312
I107
tp143
a(I312
I107
I330
I99
tp144
a(I330
I99
I355
I95
tp145
a(I355
I95
I381
I93
tp146
a(I381
I93
I412
I93
tp147
a(I412
I93
I440
I93
tp148
a(I440
I93
I466
I93
tp149
a(I466
I93
I491
I96
tp150
a(I491
I96
I506
I101
tp151
a(I506
I101
I519
I106
tp152
a(I519
I106
I526
I110
tp153
a(I526
I110
I531
I114
tp154
a(I531
I114
I532
I118
tp155
a(I532
I118
I533
I123
tp156
a(I533
I123
I533
I130
tp157
a(I533
I130
I533
I140
tp158
a(I533
I140
I528
I148
tp159
a(I528
I148
I516
I173
tp160
a(I516
I173
I503
I188
tp161
a(I503
I188
I489
I206
tp162
a(I489
I206
I471
I224
tp163
a(I471
I224
I453
I242
tp164
a(I453
I242
I437
I258
tp165
a(I437
I258
I421
I274
tp166
a(I421
I274
I409
I285
tp167
a(I409
I285
I400
I292
tp168
a(I400
I292
I395
I297
tp169
a(I395
I297
I391
I299
tp170
a(I391
I299
I389
I300
tp171
a(I389
I300
I388
I300
tp172
a(I388
I300
I388
I299
tp173
a(I388
I299
I388
I296
tp174
a(I388
I296
I386
I291
tp175
a(I386
I291
I383
I281
tp176
a(I383
I281
I380
I272
tp177
a(I380
I272
I378
I259
tp178
a(I378
I259
I377
I246
tp179
a(I377
I246
I377
I231
tp180
a(I377
I231
I377
I212
tp181
a(I377
I212
I377
I193
tp182
a(I377
I193
I379
I177
tp183
a(I379
I177
I386
I164
tp184
a(I386
I164
I393
I152
tp185
a(I393
I152
I403
I142
tp186
a(I403
I142
I416
I136
tp187
a(I416
I136
I426
I133
tp188
a(I426
I133
I439
I131
tp189
a(I439
I131
I452
I131
tp190
a(I452
I131
I465
I131
tp191
a(I465
I131
I478
I135
tp192
a(I478
I135
I491
I141
tp193
a(I491
I141
I500
I147
tp194
a(I500
I147
I508
I159
tp195
a(I508
I159
I513
I166
tp196
a(I513
I166
I515
I172
tp197
a(I515
I172
I518
I183
tp198
a(I518
I183
I518
I196
tp199
a(I518
I196
I518
I209
tp200
a(I518
I209
I518
I227
tp201
a(I518
I227
I515
I246
tp202
a(I515
I246
I510
I265
tp203
a(I510
I265
I500
I284
tp204
a(I500
I284
I486
I302
tp205
a(I486
I302
I472
I318
tp206
a(I472
I318
I455
I329
tp207
a(I455
I329
I437
I335
tp208
a(I437
I335
I418
I338
tp209
a(I418
I338
I402
I338
tp210
a(I402
I338
I389
I338
tp211
a(I389
I338
I379
I332
tp212
a(I379
I332
I369
I322
tp213
a(I369
I322
I353
I300
tp214
a(I353
I300
I343
I281
tp215
a(I343
I281
I336
I262
tp216
a(I336
I262
I336
I242
tp217
a(I336
I242
I336
I218
tp218
a(I336
I218
I336
I192
tp219
a(I336
I192
I336
I168
tp220
a(I336
I168
I343
I144
tp221
a(I343
I144
I353
I122
tp222
a(I353
I122
I367
I99
tp223
a(I367
I99
I385
I81
tp224
a(I385
I81
I407
I67
tp225
a(I407
I67
I429
I55
tp226
a(I429
I55
I453
I47
tp227
a(I453
I47
I478
I41
tp228
a(I478
I41
I500
I39
tp229
a(I500
I39
I516
I39
tp230
a(I516
I39
I529
I40
tp231
a(I529
I40
I543
I49
tp232
a(I543
I49
I546
I54
tp233
a(I546
I54
I548
I60
tp234
a(I548
I60
I549
I70
tp235
a(I549
I70
I549
I83
tp236
a(I549
I83
I549
I99
tp237
a(I549
I99
I546
I118
tp238
a(I546
I118
I541
I137
tp239
a(I541
I137
I535
I155
tp240
a(I535
I155
I525
I177
tp241
a(I525
I177
I513
I197
tp242
a(I513
I197
I499
I215
tp243
a(I499
I215
I484
I228
tp244
a(I484
I228
I470
I239
tp245
a(I470
I239
I451
I245
tp246
a(I451
I245
I433
I246
tp247
a(I433
I246
I414
I246
tp248
a(I414
I246
I399
I246
tp249
a(I399
I246
I390
I243
tp250
a(I390
I243
I380
I237
tp251
a(I380
I237
I372
I229
tp252
a(I372
I229
I367
I224
tp253
a(I367
I224
I363
I216
tp254
a(I363
I216
I362
I210
tp255
a(I362
I210
I361
I199
tp256
a(I361
I199
I361
I186
tp257
a(I361
I186
I361
I171
tp258
a(I361
I171
I366
I153
tp259
a(I366
I153
I374
I137
tp260
a(I374
I137
I390
I121
tp261
a(I390
I121
I410
I107
tp262
a(I410
I107
I434
I97
tp263
a(I434
I97
I463
I91
tp264
a(I463
I91
I496
I89
tp265
a(I496
I89
I531
I90
tp266
a(I531
I90
I563
I96
tp267
a(I563
I96
I598
I106
tp268
a(I598
I106
I629
I120
tp269
a(I629
I120
I669
I146
tp270
a(I669
I146
I685
I162
tp271
a(I685
I162
I696
I178
tp272
a(I696
I178
I701
I194
tp273
a(I701
I194
I705
I213
tp274
a(I705
I213
I707
I232
tp275
a(I707
I232
I706
I254
tp276
a(I706
I254
I698
I272
tp277
a(I698
I272
I687
I289
tp278
a(I687
I289
I669
I305
tp279
a(I669
I305
I645
I319
tp280
a(I645
I319
I612
I326
tp281
a(I612
I326
I570
I328
tp282
a(I570
I328
I524
I328
tp283
a(I524
I328
I473
I322
tp284
a(I473
I322
I429
I314
tp285
a(I429
I314
I392
I301
tp286
a(I392
I301
I363
I289
tp287
a(I363
I289
I343
I273
tp288
a(I343
I273
I321
I240
tp289
a(I321
I240
I311
I218
tp290
a(I311
I218
I307
I194
tp291
a(I307
I194
I304
I165
tp292
a(I304
I165
I304
I139
tp293
a(I304
I139
I304
I113
tp294
a(I304
I113
I305
I91
tp295
a(I305
I91
I313
I72
tp296
a(I313
I72
I323
I58
tp297
a(I323
I58
I337
I47
tp298
a(I337
I47
I356
I40
tp299
a(I356
I40
I385
I36
tp300
a(I385
I36
I416
I36
tp301
a(I416
I36
I451
I39
tp302
a(I451
I39
I488
I49
tp303
a(I488
I49
I525
I66
tp304
a(I525
I66
I563
I84
tp305
a(I563
I84
I593
I107
tp306
a(I593
I107
I631
I143
tp307
a(I631
I143
I648
I167
tp308
a(I648
I167
I662
I192
tp309
a(I662
I192
I668
I220
tp310
a(I668
I220
I670
I244
tp311
a(I670
I244
I670
I271
tp312
a(I670
I271
I663
I293
tp313
a(I663
I293
I649
I315
tp314
a(I649
I315
I629
I335
tp315
a(I629
I335
I602
I349
tp316
a(I602
I349
I565
I360
tp317
a(I565
I360
I521
I364
tp318
a(I521
I364
I470
I364
tp319
a(I470
I364
I417
I358
tp320
a(I417
I358
I368
I348
tp321
a(I368
I348
I324
I337
tp322
a(I324
I337
I289
I323
tp323
a(I289
I323
I263
I307
tp324
a(I263
I307
I241
I289
tp325
a(I241
I289
I214
I255
tp326
a(I214
I255
I199
I229
tp327
a(I199
I229
I189
I205
tp328
a(I189
I205
I183
I181
tp329
a(I183
I181
I183
I155
tp330
a(I183
I155
I183
I133
tp331
a(I183
I133
I188
I108
tp332
a(I188
I108
I201
I88
tp333
a(I201
I88
I221
I74
tp334
a(I221
I74
I249
I64
tp335
a(I249
I64
I286
I58
tp336
a(I286
I58
I333
I56
tp337
a(I333
I56
I381
I56
tp338
a(I381
I56
I435
I61
tp339
a(I435
I61
I486
I72
tp340
a(I486
I72
I534
I86
tp341
a(I534
I86
I583
I106
tp342
a(I583
I106
I620
I126
tp343
a(I620
I126
I650
I152
tp344
a(I650
I152
I684
I190
tp345
a(I684
I190
I696
I216
tp346
a(I696
I216
I702
I242
tp347
a(I702
I242
I702
I271
tp348
a(I702
I271
I701
I295
tp349
a(I701
I295
I691
I317
tp350
a(I691
I317
I677
I337
tp351
a(I677
I337
I652
I355
tp352
a(I652
I355
I620
I367
tp353
a(I620
I367
I572
I374
tp354
a(I572
I374
I518
I376
tp355
a(I518
I376
I460
I376
tp356
a(I460
I376
I402
I370
tp357
a(I402
I370
I349
I362
tp358
a(I349
I362
I300
I349
tp359
a(I300
I349
I261
I337
tp360
a(I261
I337
I228
I322
tp361
a(I228
I322
I206
I308
tp362
a(I206
I308
I185
I284
tp363
a(I185
I284
I182
I273
tp364
a(I182
I273
I182
I255
tp365
a(I182
I255
I182
I240
tp366
a(I182
I240
I183
I218
tp367
a(I183
I218
I193
I199
tp368
a(I193
I199
I215
I185
tp369
a(I215
I185
I248
I172
tp370
a(I248
I172
I292
I166
tp371
a(I292
I166
I345
I162
tp372
a(I345
I162
I406
I158
tp373
a(I406
I158
I466
I158
tp374
a(I466
I158
I527
I159
tp375
a(I527
I159
I582
I163
tp376
a(I582
I163
I636
I172
tp377
a(I636
I172
I675
I184
tp378
a(I675
I184
I708
I200
tp379
a(I708
I200
I728
I217
tp380
a(I728
I217
I739
I233
tp381
a(I739
I233
I739
I260
tp382
a(I739
I260
I732
I274
tp383
a(I732
I274
I711
I292
tp384
a(I711
I292
I683
I308
tp385
a(I683
I308
I637
I321
tp386
a(I637
I321
I582
I332
tp387
a(I582
I332
I524
I340
tp388
a(I524
I340
I465
I349
tp389
a(I465
I349
I417
I358
tp390
a(I417
I358
I375
I360
tp391
a(I375
I360
I344
I360
tp392
a(I344
I360
I326
I355
tp393
a(I326
I355
I313
I345
tp394
a(I313
I345
I305
I331
tp395
a(I305
I331
I299
I312
tp396
a(I299
I312
I299
I290
tp397
a(I299
I290
I299
I262
tp398
a(I299
I262
I302
I229
tp399
a(I302
I229
I310
I197
tp400
a(I310
I197
I331
I150
tp401
a(I331
I150
I351
I126
tp402
a(I351
I126
I378
I107
tp403
a(I378
I107
I408
I95
tp404
a(I408
I95
I439
I87
tp405
a(I439
I87
I472
I85
tp406
a(I472
I85
I498
I85
tp407
a(I498
I85
I517
I91
tp408
a(I517
I91
I527
I97
tp409
a(I527
I97
I531
I104
tp410
a(I531
I104
I532
I112
tp411
a(I532
I112
I532
I125
tp412
a(I532
I125
I532
I141
tp413
a(I532
I141
I524
I159
tp414
a(I524
I159
I515
I178
tp415
a(I515
I178
I501
I200
tp416
a(I501
I200
I483
I220
tp417
a(I483
I220
I464
I243
tp418
atp419
a.