(lp1
(S'Black'
p2
I1
(lp3
(I173
I43
I174
I43
tp4
a(I174
I43
I175
I43
tp5
a(I175
I43
I176
I44
tp6
a(I176
I44
I176
I45
tp7
a(I176
I45
I177
I46
tp8
a(I177
I46
I178
I47
tp9
a(I178
I47
I179
I47
tp10
a(I179
I47
I180
I48
tp11
a(I180
I48
I181
I50
tp12
a(I181
I50
I182
I51
tp13
a(I182
I51
I183
I52
tp14
a(I183
I52
I184
I53
tp15
a(I184
I53
I187
I54
tp16
a(I187
I54
I188
I55
tp17
a(I188
I55
I189
I56
tp18
a(I189
I56
I191
I57
tp19
a(I191
I57
I192
I58
tp20
a(I192
I58
I193
I59
tp21
a(I193
I59
I194
I60
tp22
a(I194
I60
I195
I61
tp23
a(I195
I61
I196
I62
tp24
a(I196
I62
I197
I63
tp25
a(I197
I63
I198
I64
tp26
a(I198
I64
I199
I65
tp27
a(I199
I65
I199
I66
tp28
a(I199
I66
I200
I66
tp29
a(I200
I66
I200
I67
tp30
a(I200
I67
I201
I67
tp31
a(I201
I67
I201
I68
tp32
atp33
a(g2
I1
(lp34
(I173
I84
I173
I85
tp35
a(I173
I85
I175
I87
tp36
a(I175
I87
I176
I88
tp37
a(I176
I88
I178
I90
tp38
a(I178
I90
I180
I93
tp39
a(I180
I93
I182
I95
tp40
a(I182
I95
I183
I96
tp41
a(I183
I96
I186
I98
tp42
a(I186
I98
I187
I100
tp43
a(I187
I100
I189
I102
tp44
a(I189
I102
I191
I103
tp45
a(I191
I103
I192
I104
tp46
a(I192
I104
I194
I106
tp47
a(I194
I106
I195
I106
tp48
a(I195
I106
I196
I107
tp49
a(I196
I107
I196
I108
tp50
a(I196
I108
I197
I108
tp51
a(I197
I108
I198
I108
tp52
a(I198
I108
I198
I109
tp53
atp54
a(g2
I1
(lp55
(I154
I149
I155
I149
tp56
a(I155
I149
I157
I149
tp57
a(I157
I149
I158
I148
tp58
a(I158
I148
I159
I148
tp59
a(I159
I148
I162
I147
tp60
a(I162
I147
I164
I146
tp61
a(I164
I146
I166
I144
tp62
a(I166
I144
I169
I143
tp63
a(I169
I143
I173
I142
tp64
a(I173
I142
I175
I141
tp65
a(I175
I141
I178
I140
tp66
a(I178
I140
I180
I140
tp67
a(I180
I140
I181
I139
tp68
a(I181
I139
I184
I139
tp69
a(I184
I139
I185
I139
tp70
a(I185
I139
I186
I139
tp71
a(I186
I139
I187
I139
tp72
a(I187
I139
I188
I139
tp73
a(I188
I139
I189
I139
tp74
a(I189
I139
I190
I139
tp75
a(I190
I139
I191
I139
tp76
a(I191
I139
I192
I139
tp77
a(I192
I139
I193
I139
tp78
atp79
a(g2
I1
(lp80
(I249
I48
I250
I48
tp81
a(I250
I48
I252
I49
tp82
a(I252
I49
I253
I52
tp83
a(I253
I52
I255
I53
tp84
a(I255
I53
I257
I55
tp85
a(I257
I55
I260
I57
tp86
a(I260
I57
I262
I59
tp87
a(I262
I59
I263
I61
tp88
a(I263
I61
I265
I63
tp89
a(I265
I63
I266
I65
tp90
a(I266
I65
I268
I66
tp91
a(I268
I66
I269
I68
tp92
a(I269
I68
I270
I69
tp93
a(I270
I69
I271
I70
tp94
a(I271
I70
I272
I72
tp95
a(I272
I72
I273
I73
tp96
a(I273
I73
I273
I74
tp97
a(I273
I74
I273
I75
tp98
atp99
a(g2
I1
(lp100
(I237
I86
I243
I86
tp101
a(I243
I86
I251
I86
tp102
a(I251
I86
I261
I88
tp103
a(I261
I88
I267
I88
tp104
a(I267
I88
I272
I88
tp105
a(I272
I88
I277
I88
tp106
a(I277
I88
I279
I88
tp107
a(I279
I88
I281
I88
tp108
a(I281
I88
I282
I88
tp109
a(I282
I88
I283
I88
tp110
a(I283
I88
I284
I88
tp111
a(I284
I88
I285
I88
tp112
a(I285
I88
I286
I88
tp113
a(I286
I88
I286
I89
tp114
atp115
a(g2
I1
(lp116
(I254
I93
I253
I93
tp117
a(I253
I93
I253
I94
tp118
a(I253
I94
I251
I96
tp119
a(I251
I96
I250
I97
tp120
a(I250
I97
I249
I99
tp121
a(I249
I99
I246
I102
tp122
a(I246
I102
I244
I104
tp123
a(I244
I104
I240
I107
tp124
a(I240
I107
I237
I110
tp125
a(I237
I110
I234
I113
tp126
a(I234
I113
I229
I117
tp127
a(I229
I117
I224
I119
tp128
a(I224
I119
I222
I122
tp129
a(I222
I122
I218
I124
tp130
a(I218
I124
I217
I125
tp131
a(I217
I125
I216
I126
tp132
a(I216
I126
I215
I126
tp133
a(I215
I126
I215
I127
tp134
a(I215
I127
I214
I127
tp135
a(I214
I127
I213
I128
tp136
a(I213
I128
I214
I128
tp137
a(I214
I128
I215
I128
tp138
a(I215
I128
I216
I128
tp139
a(I216
I128
I217
I128
tp140
a(I217
I128
I218
I128
tp141
a(I218
I128
I220
I128
tp142
a(I220
I128
I222
I128
tp143
a(I222
I128
I226
I128
tp144
a(I226
I128
I230
I128
tp145
a(I230
I128
I235
I128
tp146
a(I235
I128
I241
I128
tp147
a(I241
I128
I246
I128
tp148
a(I246
I128
I254
I126
tp149
a(I254
I126
I259
I126
tp150
a(I259
I126
I263
I126
tp151
a(I263
I126
I265
I126
tp152
a(I265
I126
I267
I126
tp153
a(I267
I126
I269
I126
tp154
a(I269
I126
I270
I126
tp155
a(I270
I126
I271
I126
tp156
a(I271
I126
I272
I126
tp157
a(I272
I126
I273
I125
tp158
atp159
a(g2
I1
(lp160
(I280
I106
I281
I106
tp161
a(I281
I106
I281
I109
tp162
a(I281
I109
I282
I111
tp163
a(I282
I111
I283
I113
tp164
a(I283
I113
I284
I115
tp165
a(I284
I115
I285
I117
tp166
a(I285
I117
I287
I120
tp167
a(I287
I120
I287
I123
tp168
a(I287
I123
I288
I125
tp169
a(I288
I125
I288
I127
tp170
a(I288
I127
I289
I128
tp171
a(I289
I128
I289
I130
tp172
a(I289
I130
I289
I131
tp173
a(I289
I131
I289
I132
tp174
a(I289
I132
I289
I133
tp175
a(I289
I133
I288
I133
tp176
a(I288
I133
I287
I133
tp177
atp178
a(g2
I1
(lp179
(I260
I128
I259
I128
tp180
a(I259
I128
I257
I129
tp181
a(I257
I129
I256
I130
tp182
a(I256
I130
I255
I132
tp183
a(I255
I132
I253
I134
tp184
a(I253
I134
I250
I136
tp185
a(I250
I136
I247
I138
tp186
a(I247
I138
I245
I142
tp187
a(I245
I142
I241
I144
tp188
a(I241
I144
I239
I146
tp189
a(I239
I146
I236
I149
tp190
a(I236
I149
I233
I151
tp191
a(I233
I151
I232
I153
tp192
a(I232
I153
I231
I154
tp193
a(I231
I154
I230
I156
tp194
a(I230
I156
I229
I157
tp195
a(I229
I157
I229
I158
tp196
a(I229
I158
I228
I158
tp197
a(I228
I158
I228
I159
tp198
atp199
a(g2
I1
(lp200
(I259
I138
I259
I139
tp201
a(I259
I139
I259
I141
tp202
a(I259
I141
I259
I142
tp203
a(I259
I142
I259
I144
tp204
a(I259
I144
I259
I146
tp205
a(I259
I146
I259
I148
tp206
a(I259
I148
I259
I150
tp207
a(I259
I150
I259
I153
tp208
a(I259
I153
I259
I155
tp209
a(I259
I155
I259
I157
tp210
a(I259
I157
I259
I159
tp211
a(I259
I159
I259
I161
tp212
a(I259
I161
I259
I162
tp213
a(I259
I162
I259
I163
tp214
a(I259
I163
I258
I164
tp215
a(I258
I164
I258
I165
tp216
atp217
a(g2
I1
(lp218
(I259
I133
I260
I133
tp219
a(I260
I133
I261
I133
tp220
a(I261
I133
I262
I133
tp221
a(I262
I133
I263
I134
tp222
a(I263
I134
I264
I135
tp223
a(I264
I135
I265
I138
tp224
a(I265
I138
I265
I140
tp225
a(I265
I140
I267
I144
tp226
a(I267
I144
I268
I147
tp227
a(I268
I147
I269
I151
tp228
a(I269
I151
I269
I158
tp229
a(I269
I158
I270
I161
tp230
a(I270
I161
I270
I163
tp231
a(I270
I163
I271
I164
tp232
a(I271
I164
I271
I165
tp233
a(I271
I165
I271
I167
tp234
a(I271
I167
I272
I168
tp235
a(I272
I168
I273
I168
tp236
a(I273
I168
I273
I169
tp237
a(I273
I169
I274
I169
tp238
a(I274
I169
I275
I169
tp239
a(I275
I169
I276
I169
tp240
a(I276
I169
I277
I169
tp241
a(I277
I169
I278
I169
tp242
a(I278
I169
I280
I169
tp243
a(I280
I169
I282
I168
tp244
a(I282
I168
I284
I168
tp245
a(I284
I168
I288
I167
tp246
a(I288
I167
I290
I167
tp247
a(I290
I167
I293
I166
tp248
a(I293
I166
I296
I166
tp249
a(I296
I166
I299
I165
tp250
a(I299
I165
I302
I165
tp251
a(I302
I165
I304
I164
tp252
a(I304
I164
I307
I163
tp253
a(I307
I163
I310
I162
tp254
a(I310
I162
I314
I161
tp255
a(I314
I161
I316
I160
tp256
a(I316
I160
I317
I160
tp257
a(I317
I160
I318
I157
tp258
a(I318
I157
I319
I157
tp259
a(I319
I157
I320
I157
tp260
a(I320
I157
I320
I156
tp261
a(I320
I156
I320
I155
tp262
a(I320
I155
I320
I154
tp263
a(I320
I154
I320
I153
tp264
a(I320
I153
I320
I152
tp265
a(I320
I152
I320
I151
tp266
a(I320
I151
I320
I150
tp267
a(I320
I150
I320
I149
tp268
a(I320
I149
I320
I146
tp269
a(I320
I146
I320
I145
tp270
a(I320
I145
I320
I143
tp271
a(I320
I143
I320
I141
tp272
a(I320
I141
I321
I138
tp273
a(I321
I138
I323
I137
tp274
a(I323
I137
I325
I133
tp275
atp276
a(g2
I1
(lp277
(I406
I64
I407
I65
tp278
a(I407
I65
I408
I67
tp279
a(I408
I67
I409
I71
tp280
a(I409
I71
I412
I73
tp281
a(I412
I73
I413
I75
tp282
a(I413
I75
I414
I77
tp283
a(I414
I77
I415
I79
tp284
a(I415
I79
I416
I82
tp285
a(I416
I82
I416
I83
tp286
a(I416
I83
I417
I85
tp287
a(I417
I85
I417
I86
tp288
a(I417
I86
I418
I88
tp289
a(I418
I88
I419
I89
tp290
a(I419
I89
I420
I90
tp291
a(I420
I90
I420
I91
tp292
atp293
a(g2
I1
(lp294
(I389
I100
I390
I100
tp295
a(I390
I100
I391
I100
tp296
a(I391
I100
I394
I100
tp297
a(I394
I100
I396
I100
tp298
a(I396
I100
I398
I100
tp299
a(I398
I100
I401
I100
tp300
a(I401
I100
I403
I100
tp301
a(I403
I100
I407
I100
tp302
a(I407
I100
I410
I100
tp303
a(I410
I100
I413
I100
tp304
a(I413
I100
I417
I100
tp305
a(I417
I100
I420
I100
tp306
a(I420
I100
I424
I100
tp307
a(I424
I100
I427
I100
tp308
a(I427
I100
I432
I100
tp309
a(I432
I100
I435
I100
tp310
a(I435
I100
I440
I100
tp311
a(I440
I100
I445
I100
tp312
a(I445
I100
I448
I101
tp313
a(I448
I101
I451
I101
tp314
a(I451
I101
I454
I101
tp315
a(I454
I101
I456
I101
tp316
a(I456
I101
I457
I101
tp317
atp318
a(g2
I1
(lp319
(I415
I109
I415
I110
tp320
a(I415
I110
I415
I111
tp321
a(I415
I111
I415
I113
tp322
a(I415
I113
I415
I114
tp323
a(I415
I114
I414
I118
tp324
a(I414
I118
I413
I120
tp325
a(I413
I120
I412
I122
tp326
a(I412
I122
I411
I125
tp327
a(I411
I125
I408
I128
tp328
a(I408
I128
I407
I131
tp329
a(I407
I131
I405
I134
tp330
a(I405
I134
I404
I138
tp331
a(I404
I138
I402
I140
tp332
a(I402
I140
I400
I144
tp333
a(I400
I144
I398
I147
tp334
a(I398
I147
I396
I149
tp335
a(I396
I149
I395
I151
tp336
a(I395
I151
I394
I154
tp337
a(I394
I154
I394
I155
tp338
a(I394
I155
I393
I156
tp339
a(I393
I156
I393
I157
tp340
a(I393
I157
I393
I158
tp341
a(I393
I158
I394
I158
tp342
a(I394
I158
I395
I158
tp343
a(I395
I158
I396
I158
tp344
a(I396
I158
I397
I158
tp345
a(I397
I158
I399
I158
tp346
a(I399
I158
I400
I158
tp347
a(I400
I158
I401
I158
tp348
a(I401
I158
I402
I158
tp349
a(I402
I158
I403
I157
tp350
a(I403
I157
I404
I157
tp351
a(I404
I157
I406
I157
tp352
a(I406
I157
I407
I157
tp353
a(I407
I157
I409
I157
tp354
a(I409
I157
I412
I157
tp355
a(I412
I157
I416
I157
tp356
a(I416
I157
I422
I158
tp357
a(I422
I158
I427
I158
tp358
a(I427
I158
I429
I159
tp359
a(I429
I159
I431
I159
tp360
a(I431
I159
I433
I159
tp361
a(I433
I159
I433
I160
tp362
a(I433
I160
I434
I160
tp363
atp364
a(g2
I1
(lp365
(I472
I67
I476
I67
tp366
a(I476
I67
I482
I68
tp367
a(I482
I68
I487
I68
tp368
a(I487
I68
I493
I70
tp369
a(I493
I70
I499
I70
tp370
a(I499
I70
I504
I71
tp371
a(I504
I71
I509
I72
tp372
a(I509
I72
I514
I73
tp373
a(I514
I73
I516
I73
tp374
a(I516
I73
I518
I74
tp375
a(I518
I74
I519
I75
tp376
a(I519
I75
I520
I75
tp377
a(I520
I75
I521
I75
tp378
a(I521
I75
I521
I76
tp379
a(I521
I76
I521
I77
tp380
a(I521
I77
I521
I78
tp381
a(I521
I78
I521
I79
tp382
a(I521
I79
I521
I80
tp383
a(I521
I80
I521
I82
tp384
a(I521
I82
I520
I83
tp385
a(I520
I83
I519
I84
tp386
a(I519
I84
I518
I87
tp387
a(I518
I87
I517
I89
tp388
a(I517
I89
I516
I91
tp389
a(I516
I91
I513
I93
tp390
a(I513
I93
I512
I96
tp391
a(I512
I96
I511
I99
tp392
a(I511
I99
I509
I102
tp393
a(I509
I102
I508
I104
tp394
a(I508
I104
I507
I107
tp395
a(I507
I107
I506
I110
tp396
a(I506
I110
I506
I112
tp397
a(I506
I112
I505
I113
tp398
a(I505
I113
I504
I115
tp399
a(I504
I115
I504
I116
tp400
a(I504
I116
I504
I117
tp401
a(I504
I117
I503
I117
tp402
atp403
a(g2
I1
(lp404
(I476
I112
I477
I112
tp405
a(I477
I112
I479
I112
tp406
a(I479
I112
I480
I112
tp407
a(I480
I112
I481
I112
tp408
a(I481
I112
I483
I112
tp409
a(I483
I112
I484
I112
tp410
a(I484
I112
I486
I112
tp411
a(I486
I112
I487
I112
tp412
a(I487
I112
I488
I112
tp413
a(I488
I112
I489
I112
tp414
a(I489
I112
I490
I112
tp415
a(I490
I112
I491
I112
tp416
a(I491
I112
I491
I113
tp417
a(I491
I113
I492
I113
tp418
atp419
a(g2
I1
(lp420
(I471
I75
I472
I75
tp421
a(I472
I75
I473
I75
tp422
a(I473
I75
I474
I76
tp423
a(I474
I76
I474
I77
tp424
a(I474
I77
I475
I78
tp425
a(I475
I78
I475
I80
tp426
a(I475
I80
I475
I82
tp427
a(I475
I82
I476
I84
tp428
a(I476
I84
I476
I87
tp429
a(I476
I87
I476
I90
tp430
a(I476
I90
I476
I94
tp431
a(I476
I94
I476
I98
tp432
a(I476
I98
I476
I101
tp433
a(I476
I101
I476
I105
tp434
a(I476
I105
I476
I109
tp435
a(I476
I109
I476
I114
tp436
a(I476
I114
I475
I125
tp437
a(I475
I125
I474
I128
tp438
a(I474
I128
I473
I134
tp439
a(I473
I134
I472
I138
tp440
a(I472
I138
I470
I142
tp441
a(I470
I142
I469
I146
tp442
a(I469
I146
I468
I148
tp443
a(I468
I148
I468
I151
tp444
a(I468
I151
I467
I153
tp445
a(I467
I153
I466
I156
tp446
a(I466
I156
I466
I158
tp447
a(I466
I158
I466
I160
tp448
a(I466
I160
I465
I162
tp449
a(I465
I162
I465
I163
tp450
a(I465
I163
I465
I165
tp451
a(I465
I165
I465
I166
tp452
a(I465
I166
I465
I167
tp453
a(I465
I167
I465
I168
tp454
a(I465
I168
I465
I169
tp455
a(I465
I169
I465
I170
tp456
a(I465
I170
I465
I171
tp457
a(I465
I171
I466
I171
tp458
a(I466
I171
I467
I171
tp459
a(I467
I171
I468
I171
tp460
a(I468
I171
I469
I171
tp461
a(I469
I171
I470
I171
tp462
a(I470
I171
I471
I171
tp463
a(I471
I171
I472
I171
tp464
a(I472
I171
I473
I171
tp465
a(I473
I171
I474
I171
tp466
a(I474
I171
I475
I171
tp467
a(I475
I171
I476
I171
tp468
a(I476
I171
I477
I171
tp469
a(I477
I171
I478
I171
tp470
a(I478
I171
I479
I171
tp471
a(I479
I171
I480
I171
tp472
a(I480
I171
I481
I171
tp473
atp474
a(g2
I1
(lp475
(I472
I133
I473
I133
tp476
a(I473
I133
I474
I133
tp477
a(I474
I133
I476
I134
tp478
a(I476
I134
I477
I134
tp479
a(I477
I134
I479
I135
tp480
a(I479
I135
I481
I135
tp481
a(I481
I135
I484
I136
tp482
a(I484
I136
I487
I136
tp483
a(I487
I136
I489
I136
tp484
a(I489
I136
I490
I137
tp485
a(I490
I137
I492
I137
tp486
a(I492
I137
I494
I137
tp487
a(I494
I137
I495
I138
tp488
a(I495
I138
I497
I138
tp489
a(I497
I138
I501
I138
tp490
a(I501
I138
I503
I138
tp491
a(I503
I138
I505
I138
tp492
a(I505
I138
I507
I138
tp493
a(I507
I138
I509
I138
tp494
a(I509
I138
I510
I139
tp495
a(I510
I139
I511
I139
tp496
a(I511
I139
I512
I139
tp497
atp498
a(g2
I1
(lp499
(I495
I130
I497
I130
tp500
a(I497
I130
I497
I132
tp501
a(I497
I132
I499
I135
tp502
a(I499
I135
I500
I137
tp503
a(I500
I137
I501
I139
tp504
a(I501
I139
I502
I144
tp505
a(I502
I144
I504
I146
tp506
a(I504
I146
I505
I149
tp507
a(I505
I149
I506
I151
tp508
a(I506
I151
I506
I155
tp509
a(I506
I155
I507
I157
tp510
a(I507
I157
I508
I160
tp511
a(I508
I160
I509
I163
tp512
a(I509
I163
I509
I166
tp513
a(I509
I166
I510
I168
tp514
a(I510
I168
I511
I171
tp515
a(I511
I171
I512
I173
tp516
a(I512
I173
I513
I175
tp517
a(I513
I175
I514
I179
tp518
a(I514
I179
I516
I181
tp519
a(I516
I181
I517
I183
tp520
a(I517
I183
I518
I185
tp521
a(I518
I185
I519
I186
tp522
a(I519
I186
I520
I187
tp523
a(I520
I187
I520
I188
tp524
a(I520
I188
I521
I190
tp525
a(I521
I190
I522
I190
tp526
a(I522
I190
I523
I191
tp527
a(I523
I191
I524
I191
tp528
a(I524
I191
I525
I191
tp529
a(I525
I191
I526
I191
tp530
a(I526
I191
I527
I191
tp531
a(I527
I191
I529
I191
tp532
a(I529
I191
I532
I190
tp533
a(I532
I190
I534
I189
tp534
a(I534
I189
I537
I187
tp535
a(I537
I187
I545
I184
tp536
a(I545
I184
I547
I182
tp537
a(I547
I182
I552
I179
tp538
a(I552
I179
I555
I177
tp539
a(I555
I177
I559
I176
tp540
a(I559
I176
I562
I172
tp541
a(I562
I172
I565
I170
tp542
a(I565
I170
I566
I168
tp543
a(I566
I168
I566
I166
tp544
atp545
a(V Green
p546
I1
(lp547
(I164
I176
I164
I177
tp548
a(I164
I177
I164
I178
tp549
a(I164
I178
I164
I179
tp550
a(I164
I179
I164
I180
tp551
a(I164
I180
I164
I181
tp552
a(I164
I181
I165
I183
tp553
a(I165
I183
I165
I185
tp554
a(I165
I185
I165
I187
tp555
a(I165
I187
I165
I189
tp556
a(I165
I189
I166
I191
tp557
a(I166
I191
I166
I195
tp558
a(I166
I195
I166
I197
tp559
a(I166
I197
I166
I200
tp560
a(I166
I200
I167
I202
tp561
a(I167
I202
I167
I206
tp562
a(I167
I206
I167
I209
tp563
a(I167
I209
I167
I214
tp564
a(I167
I214
I167
I217
tp565
a(I167
I217
I167
I225
tp566
a(I167
I225
I167
I230
tp567
a(I167
I230
I167
I235
tp568
a(I167
I235
I167
I240
tp569
a(I167
I240
I167
I243
tp570
a(I167
I243
I167
I246
tp571
a(I167
I246
I167
I249
tp572
a(I167
I249
I167
I252
tp573
a(I167
I252
I167
I254
tp574
a(I167
I254
I167
I256
tp575
a(I167
I256
I167
I257
tp576
a(I167
I257
I167
I259
tp577
a(I167
I259
I167
I260
tp578
a(I167
I260
I167
I262
tp579
a(I167
I262
I166
I263
tp580
a(I166
I263
I166
I266
tp581
a(I166
I266
I166
I267
tp582
a(I166
I267
I166
I269
tp583
a(I166
I269
I165
I270
tp584
a(I165
I270
I164
I272
tp585
a(I164
I272
I164
I274
tp586
a(I164
I274
I164
I275
tp587
a(I164
I275
I163
I276
tp588
a(I163
I276
I163
I277
tp589
a(I163
I277
I162
I278
tp590
a(I162
I278
I162
I279
tp591
a(I162
I279
I161
I280
tp592
a(I161
I280
I161
I281
tp593
a(I161
I281
I160
I282
tp594
a(I160
I282
I159
I282
tp595
a(I159
I282
I158
I283
tp596
a(I158
I283
I157
I283
tp597
a(I157
I283
I155
I284
tp598
a(I155
I284
I154
I284
tp599
a(I154
I284
I153
I284
tp600
a(I153
I284
I151
I284
tp601
a(I151
I284
I150
I284
tp602
a(I150
I284
I148
I284
tp603
a(I148
I284
I147
I284
tp604
a(I147
I284
I146
I284
tp605
a(I146
I284
I144
I284
tp606
a(I144
I284
I143
I284
tp607
a(I143
I284
I142
I284
tp608
a(I142
I284
I141
I284
tp609
a(I141
I284
I139
I284
tp610
a(I139
I284
I137
I283
tp611
a(I137
I283
I136
I282
tp612
a(I136
I282
I135
I282
tp613
a(I135
I282
I132
I281
tp614
a(I132
I281
I131
I281
tp615
a(I131
I281
I130
I280
tp616
a(I130
I280
I129
I279
tp617
a(I129
I279
I128
I278
tp618
a(I128
I278
I126
I277
tp619
a(I126
I277
I125
I275
tp620
a(I125
I275
I123
I274
tp621
a(I123
I274
I123
I271
tp622
a(I123
I271
I121
I269
tp623
a(I121
I269
I120
I266
tp624
a(I120
I266
I120
I264
tp625
a(I120
I264
I120
I261
tp626
a(I120
I261
I120
I258
tp627
a(I120
I258
I120
I255
tp628
a(I120
I255
I120
I251
tp629
a(I120
I251
I120
I248
tp630
a(I120
I248
I120
I245
tp631
a(I120
I245
I120
I241
tp632
a(I120
I241
I121
I238
tp633
a(I121
I238
I122
I236
tp634
a(I122
I236
I123
I233
tp635
a(I123
I233
I125
I231
tp636
a(I125
I231
I128
I229
tp637
a(I128
I229
I130
I228
tp638
a(I130
I228
I133
I227
tp639
a(I133
I227
I137
I226
tp640
a(I137
I226
I140
I226
tp641
a(I140
I226
I145
I224
tp642
a(I145
I224
I147
I224
tp643
a(I147
I224
I152
I223
tp644
a(I152
I223
I154
I223
tp645
a(I154
I223
I156
I223
tp646
a(I156
I223
I157
I223
tp647
a(I157
I223
I158
I223
tp648
a(I158
I223
I159
I223
tp649
a(I159
I223
I160
I224
tp650
a(I160
I224
I161
I224
tp651
a(I161
I224
I162
I225
tp652
a(I162
I225
I164
I225
tp653
a(I164
I225
I165
I225
tp654
a(I165
I225
I167
I225
tp655
a(I167
I225
I168
I225
tp656
a(I168
I225
I169
I225
tp657
a(I169
I225
I171
I225
tp658
a(I171
I225
I173
I225
tp659
a(I173
I225
I175
I225
tp660
a(I175
I225
I176
I225
tp661
a(I176
I225
I179
I225
tp662
a(I179
I225
I182
I225
tp663
a(I182
I225
I184
I225
tp664
a(I184
I225
I185
I225
tp665
a(I185
I225
I187
I226
tp666
a(I187
I226
I190
I229
tp667
a(I190
I229
I192
I231
tp668
a(I192
I231
I194
I233
tp669
a(I194
I233
I196
I234
tp670
a(I196
I234
I198
I235
tp671
a(I198
I235
I200
I236
tp672
a(I200
I236
I203
I237
tp673
a(I203
I237
I205
I240
tp674
a(I205
I240
I207
I242
tp675
a(I207
I242
I208
I244
tp676
a(I208
I244
I209
I248
tp677
a(I209
I248
I210
I250
tp678
a(I210
I250
I210
I252
tp679
a(I210
I252
I210
I254
tp680
a(I210
I254
I210
I256
tp681
a(I210
I256
I210
I257
tp682
a(I210
I257
I210
I258
tp683
a(I210
I258
I211
I258
tp684
a(I211
I258
I212
I258
tp685
a(I212
I258
I213
I258
tp686
a(I213
I258
I214
I258
tp687
a(I214
I258
I216
I257
tp688
a(I216
I257
I217
I257
tp689
a(I217
I257
I218
I256
tp690
a(I218
I256
I219
I256
tp691
a(I219
I256
I220
I256
tp692
a(I220
I256
I221
I256
tp693
a(I221
I256
I222
I256
tp694
a(I222
I256
I223
I256
tp695
a(I223
I256
I224
I256
tp696
a(I224
I256
I226
I256
tp697
a(I226
I256
I228
I256
tp698
a(I228
I256
I229
I256
tp699
a(I229
I256
I230
I256
tp700
a(I230
I256
I231
I256
tp701
a(I231
I256
I232
I256
tp702
a(I232
I256
I233
I256
tp703
a(I233
I256
I234
I256
tp704
a(I234
I256
I235
I256
tp705
a(I235
I256
I236
I256
tp706
a(I236
I256
I237
I256
tp707
a(I237
I256
I238
I256
tp708
a(I238
I256
I238
I255
tp709
atp710
a.