(lp1
(S'Black'
p2
I1
(ltp3
a(S'Red'
I1
(lp4
(I167
I86
I167
I88
tp5
a(I167
I88
I167
I89
tp6
a(I167
I89
I168
I91
tp7
a(I168
I91
I168
I94
tp8
a(I168
I94
I169
I96
tp9
a(I169
I96
I169
I98
tp10
a(I169
I98
I171
I101
tp11
a(I171
I101
I171
I106
tp12
a(I171
I106
I172
I109
tp13
a(I172
I109
I172
I113
tp14
a(I172
I113
I172
I116
tp15
a(I172
I116
I172
I119
tp16
a(I172
I119
I172
I122
tp17
a(I172
I122
I172
I124
tp18
a(I172
I124
I172
I127
tp19
a(I172
I127
I172
I131
tp20
a(I172
I131
I172
I134
tp21
a(I172
I134
I173
I139
tp22
a(I173
I139
I173
I142
tp23
a(I173
I142
I173
I147
tp24
a(I173
I147
I173
I151
tp25
a(I173
I151
I173
I155
tp26
a(I173
I155
I173
I159
tp27
a(I173
I159
I174
I162
tp28
a(I174
I162
I174
I164
tp29
a(I174
I164
I174
I168
tp30
a(I174
I168
I174
I170
tp31
a(I174
I170
I174
I174
tp32
a(I174
I174
I175
I177
tp33
a(I175
I177
I175
I178
tp34
a(I175
I178
I175
I180
tp35
a(I175
I180
I175
I181
tp36
a(I175
I181
I175
I182
tp37
a(I175
I182
I175
I183
tp38
a(I175
I183
I175
I184
tp39
a(I175
I184
I175
I185
tp40
a(I175
I185
I176
I186
tp41
a(I176
I186
I176
I187
tp42
a(I176
I187
I177
I187
tp43
a(I177
I187
I178
I187
tp44
a(I178
I187
I179
I187
tp45
a(I179
I187
I180
I187
tp46
a(I180
I187
I180
I186
tp47
a(I180
I186
I181
I186
tp48
a(I181
I186
I183
I185
tp49
a(I183
I185
I184
I185
tp50
a(I184
I185
I185
I184
tp51
a(I185
I184
I186
I184
tp52
a(I186
I184
I187
I184
tp53
a(I187
I184
I188
I184
tp54
a(I188
I184
I189
I184
tp55
a(I189
I184
I190
I183
tp56
a(I190
I183
I192
I183
tp57
a(I192
I183
I194
I183
tp58
a(I194
I183
I198
I183
tp59
a(I198
I183
I200
I181
tp60
a(I200
I181
I203
I181
tp61
a(I203
I181
I208
I181
tp62
a(I208
I181
I211
I181
tp63
a(I211
I181
I215
I181
tp64
a(I215
I181
I217
I181
tp65
a(I217
I181
I220
I181
tp66
a(I220
I181
I222
I181
tp67
a(I222
I181
I226
I181
tp68
a(I226
I181
I228
I181
tp69
a(I228
I181
I231
I181
tp70
a(I231
I181
I234
I181
tp71
a(I234
I181
I236
I181
tp72
a(I236
I181
I239
I181
tp73
a(I239
I181
I240
I181
tp74
a(I240
I181
I242
I181
tp75
a(I242
I181
I243
I181
tp76
a(I243
I181
I244
I181
tp77
a(I244
I181
I245
I181
tp78
a(I245
I181
I246
I181
tp79
a(I246
I181
I246
I180
tp80
a(I246
I180
I247
I180
tp81
a(I247
I180
I246
I181
tp82
a(I246
I181
I245
I182
tp83
atp84
a(S'Green'
p85
I1
(lp86
(I283
I92
I282
I94
tp87
a(I282
I94
I282
I98
tp88
a(I282
I98
I281
I100
tp89
a(I281
I100
I280
I103
tp90
a(I280
I103
I280
I108
tp91
a(I280
I108
I280
I113
tp92
a(I280
I113
I280
I118
tp93
a(I280
I118
I280
I122
tp94
a(I280
I122
I280
I129
tp95
a(I280
I129
I280
I139
tp96
a(I280
I139
I280
I144
tp97
a(I280
I144
I281
I151
tp98
a(I281
I151
I283
I155
tp99
a(I283
I155
I284
I160
tp100
a(I284
I160
I286
I165
tp101
a(I286
I165
I287
I170
tp102
a(I287
I170
I289
I173
tp103
a(I289
I173
I290
I175
tp104
a(I290
I175
I291
I177
tp105
a(I291
I177
I291
I179
tp106
a(I291
I179
I292
I181
tp107
a(I292
I181
I293
I182
tp108
a(I293
I182
I293
I183
tp109
a(I293
I183
I293
I184
tp110
a(I293
I184
I294
I185
tp111
a(I294
I185
I294
I186
tp112
a(I294
I186
I294
I187
tp113
a(I294
I187
I294
I188
tp114
a(I294
I188
I295
I191
tp115
a(I295
I191
I296
I191
tp116
a(I296
I191
I296
I192
tp117
a(I296
I192
I296
I193
tp118
a(I296
I193
I297
I194
tp119
a(I297
I194
I298
I195
tp120
a(I298
I195
I298
I196
tp121
a(I298
I196
I299
I196
tp122
a(I299
I196
I300
I196
tp123
a(I300
I196
I302
I196
tp124
a(I302
I196
I304
I196
tp125
a(I304
I196
I307
I196
tp126
a(I307
I196
I311
I196
tp127
a(I311
I196
I316
I196
tp128
a(I316
I196
I319
I195
tp129
a(I319
I195
I324
I195
tp130
a(I324
I195
I329
I195
tp131
a(I329
I195
I333
I195
tp132
a(I333
I195
I342
I195
tp133
a(I342
I195
I350
I195
tp134
a(I350
I195
I358
I196
tp135
a(I358
I196
I369
I196
tp136
a(I369
I196
I379
I197
tp137
a(I379
I197
I390
I197
tp138
a(I390
I197
I399
I199
tp139
a(I399
I199
I408
I199
tp140
a(I408
I199
I414
I199
tp141
a(I414
I199
I417
I199
tp142
a(I417
I199
I421
I199
tp143
a(I421
I199
I423
I199
tp144
a(I423
I199
I424
I199
tp145
a(I424
I199
I424
I198
tp146
a(I424
I198
I423
I198
tp147
a(I423
I198
I423
I199
tp148
a(I423
I199
I422
I199
tp149
a(I422
I199
I421
I200
tp150
a(I421
I200
I420
I201
tp151
atp152
a(g85
I1
(lp153
(I214
I47
I214
I49
tp154
a(I214
I49
I214
I53
tp155
a(I214
I53
I214
I55
tp156
a(I214
I55
I214
I57
tp157
a(I214
I57
I214
I61
tp158
a(I214
I61
I214
I64
tp159
a(I214
I64
I214
I66
tp160
a(I214
I66
I214
I69
tp161
a(I214
I69
I214
I72
tp162
a(I214
I72
I214
I75
tp163
a(I214
I75
I214
I77
tp164
a(I214
I77
I212
I79
tp165
a(I212
I79
I212
I81
tp166
a(I212
I81
I211
I84
tp167
a(I211
I84
I210
I85
tp168
a(I210
I85
I209
I87
tp169
a(I209
I87
I209
I88
tp170
a(I209
I88
I208
I89
tp171
a(I208
I89
I207
I90
tp172
a(I207
I90
I207
I91
tp173
a(I207
I91
I206
I92
tp174
a(I206
I92
I205
I94
tp175
a(I205
I94
I204
I95
tp176
a(I204
I95
I204
I96
tp177
a(I204
I96
I203
I97
tp178
a(I203
I97
I202
I99
tp179
a(I202
I99
I201
I100
tp180
a(I201
I100
I201
I101
tp181
a(I201
I101
I200
I102
tp182
a(I200
I102
I199
I103
tp183
a(I199
I103
I199
I104
tp184
a(I199
I104
I198
I104
tp185
a(I198
I104
I197
I105
tp186
a(I197
I105
I197
I106
tp187
a(I197
I106
I196
I107
tp188
a(I196
I107
I195
I107
tp189
a(I195
I107
I195
I108
tp190
a(I195
I108
I194
I108
tp191
a(I194
I108
I194
I109
tp192
atp193
a(g85
I1
(lp194
(I217
I64
I218
I64
tp195
a(I218
I64
I219
I64
tp196
a(I219
I64
I220
I64
tp197
a(I220
I64
I222
I64
tp198
a(I222
I64
I224
I64
tp199
a(I224
I64
I225
I63
tp200
a(I225
I63
I227
I63
tp201
a(I227
I63
I229
I63
tp202
a(I229
I63
I231
I63
tp203
a(I231
I63
I232
I63
tp204
a(I232
I63
I234
I63
tp205
a(I234
I63
I235
I63
tp206
a(I235
I63
I236
I63
tp207
a(I236
I63
I237
I63
tp208
a(I237
I63
I238
I63
tp209
a(I238
I63
I239
I63
tp210
a(I239
I63
I242
I63
tp211
a(I242
I63
I243
I63
tp212
a(I243
I63
I244
I63
tp213
a(I244
I63
I245
I63
tp214
a(I245
I63
I246
I63
tp215
a(I246
I63
I247
I63
tp216
a(I247
I63
I248
I63
tp217
a(I248
I63
I248
I64
tp218
atp219
a(g85
I1
(lp220
(I217
I83
I220
I83
tp221
a(I220
I83
I221
I83
tp222
a(I221
I83
I223
I83
tp223
a(I223
I83
I225
I83
tp224
a(I225
I83
I228
I83
tp225
a(I228
I83
I230
I83
tp226
a(I230
I83
I234
I83
tp227
a(I234
I83
I236
I83
tp228
a(I236
I83
I239
I84
tp229
a(I239
I84
I240
I84
tp230
a(I240
I84
I242
I84
tp231
a(I242
I84
I243
I84
tp232
a(I243
I84
I244
I84
tp233
a(I244
I84
I245
I84
tp234
a(I245
I84
I246
I84
tp235
a(I246
I84
I247
I84
tp236
a(I247
I84
I248
I84
tp237
a(I248
I84
I249
I84
tp238
a(I249
I84
I251
I84
tp239
a(I251
I84
I252
I84
tp240
a(I252
I84
I253
I84
tp241
atp242
a(S'Blue'
p243
I1
(lp244
(I237
I72
I236
I73
tp245
a(I236
I73
I235
I74
tp246
a(I235
I74
I235
I75
tp247
a(I235
I75
I234
I76
tp248
a(I234
I76
I233
I76
tp249
a(I233
I76
I232
I77
tp250
a(I232
I77
I232
I78
tp251
a(I232
I78
I230
I81
tp252
a(I230
I81
I227
I83
tp253
a(I227
I83
I226
I85
tp254
a(I226
I85
I223
I87
tp255
a(I223
I87
I221
I91
tp256
a(I221
I91
I217
I94
tp257
a(I217
I94
I213
I98
tp258
a(I213
I98
I211
I101
tp259
a(I211
I101
I209
I105
tp260
a(I209
I105
I205
I107
tp261
a(I205
I107
I202
I109
tp262
a(I202
I109
I198
I113
tp263
a(I198
I113
I196
I114
tp264
a(I196
I114
I193
I116
tp265
a(I193
I116
I192
I118
tp266
a(I192
I118
I190
I119
tp267
a(I190
I119
I190
I120
tp268
a(I190
I120
I189
I120
tp269
a(I189
I120
I189
I121
tp270
atp271
a(g243
I1
(lp272
(I225
I99
I226
I99
tp273
a(I226
I99
I227
I99
tp274
a(I227
I99
I228
I101
tp275
a(I228
I101
I229
I103
tp276
a(I229
I103
I231
I104
tp277
a(I231
I104
I232
I106
tp278
a(I232
I106
I233
I108
tp279
a(I233
I108
I235
I110
tp280
a(I235
I110
I236
I112
tp281
a(I236
I112
I237
I113
tp282
a(I237
I113
I237
I114
tp283
a(I237
I114
I238
I115
tp284
a(I238
I115
I239
I116
tp285
atp286
a(g243
I1
(lp287
(I265
I62
I265
I64
tp288
a(I265
I64
I266
I66
tp289
a(I266
I66
I266
I68
tp290
a(I266
I68
I266
I70
tp291
a(I266
I70
I266
I74
tp292
a(I266
I74
I266
I77
tp293
a(I266
I77
I266
I81
tp294
a(I266
I81
I266
I83
tp295
a(I266
I83
I266
I85
tp296
a(I266
I85
I266
I88
tp297
a(I266
I88
I266
I90
tp298
a(I266
I90
I266
I93
tp299
a(I266
I93
I266
I95
tp300
a(I266
I95
I266
I97
tp301
a(I266
I97
I266
I99
tp302
a(I266
I99
I266
I100
tp303
a(I266
I100
I266
I101
tp304
a(I266
I101
I266
I102
tp305
atp306
a(g243
I1
(lp307
(I290
I56
I291
I56
tp308
a(I291
I56
I292
I56
tp309
a(I292
I56
I293
I56
tp310
a(I293
I56
I294
I56
tp311
a(I294
I56
I296
I56
tp312
a(I296
I56
I297
I56
tp313
a(I297
I56
I298
I56
tp314
a(I298
I56
I300
I56
tp315
a(I300
I56
I301
I56
tp316
a(I301
I56
I303
I56
tp317
a(I303
I56
I304
I56
tp318
a(I304
I56
I306
I56
tp319
a(I306
I56
I307
I57
tp320
a(I307
I57
I309
I58
tp321
a(I309
I58
I310
I59
tp322
a(I310
I59
I311
I59
tp323
a(I311
I59
I312
I60
tp324
a(I312
I60
I312
I61
tp325
a(I312
I61
I313
I62
tp326
a(I313
I62
I314
I63
tp327
a(I314
I63
I315
I64
tp328
a(I315
I64
I315
I65
tp329
a(I315
I65
I315
I66
tp330
a(I315
I66
I315
I68
tp331
a(I315
I68
I315
I69
tp332
a(I315
I69
I315
I71
tp333
a(I315
I71
I315
I73
tp334
a(I315
I73
I315
I76
tp335
a(I315
I76
I314
I78
tp336
a(I314
I78
I312
I80
tp337
a(I312
I80
I311
I82
tp338
a(I311
I82
I309
I85
tp339
a(I309
I85
I308
I88
tp340
a(I308
I88
I307
I90
tp341
a(I307
I90
I304
I92
tp342
a(I304
I92
I303
I94
tp343
a(I303
I94
I302
I96
tp344
a(I302
I96
I301
I97
tp345
a(I301
I97
I301
I98
tp346
a(I301
I98
I300
I99
tp347
a(I300
I99
I299
I99
tp348
a(I299
I99
I299
I100
tp349
a(I299
I100
I298
I101
tp350
a(I298
I101
I297
I101
tp351
a(I297
I101
I296
I101
tp352
a(I296
I101
I294
I102
tp353
a(I294
I102
I293
I102
tp354
a(I293
I102
I291
I102
tp355
atp356
a(g243
I1
(lp357
(I266
I98
I267
I98
tp358
a(I267
I98
I268
I98
tp359
a(I268
I98
I269
I98
tp360
a(I269
I98
I270
I98
tp361
a(I270
I98
I271
I97
tp362
a(I271
I97
I273
I97
tp363
a(I273
I97
I274
I97
tp364
a(I274
I97
I275
I97
tp365
a(I275
I97
I277
I97
tp366
a(I277
I97
I278
I97
tp367
a(I278
I97
I280
I97
tp368
a(I280
I97
I281
I97
tp369
a(I281
I97
I282
I97
tp370
a(I282
I97
I284
I97
tp371
a(I284
I97
I285
I97
tp372
a(I285
I97
I286
I97
tp373
a(I286
I97
I286
I98
tp374
a(I286
I98
I286
I99
tp375
a(I286
I99
I286
I100
tp376
atp377
a(g243
I1
(lp378
(I215
I140
I215
I141
tp379
a(I215
I141
I215
I142
tp380
a(I215
I142
I215
I144
tp381
a(I215
I144
I215
I145
tp382
a(I215
I145
I215
I148
tp383
a(I215
I148
I215
I150
tp384
a(I215
I150
I215
I152
tp385
a(I215
I152
I215
I155
tp386
a(I215
I155
I215
I157
tp387
a(I215
I157
I215
I159
tp388
a(I215
I159
I214
I163
tp389
a(I214
I163
I214
I168
tp390
a(I214
I168
I213
I171
tp391
a(I213
I171
I212
I174
tp392
a(I212
I174
I212
I178
tp393
a(I212
I178
I210
I181
tp394
a(I210
I181
I208
I186
tp395
a(I208
I186
I208
I189
tp396
a(I208
I189
I207
I191
tp397
a(I207
I191
I206
I195
tp398
a(I206
I195
I205
I197
tp399
a(I205
I197
I205
I198
tp400
a(I205
I198
I205
I199
tp401
a(I205
I199
I204
I199
tp402
a(I204
I199
I204
I200
tp403
a(I204
I200
I203
I200
tp404
a(I203
I200
I203
I201
tp405
a(I203
I201
I202
I201
tp406
a(I202
I201
I201
I201
tp407
a(I201
I201
I200
I201
tp408
a(I200
I201
I198
I201
tp409
a(I198
I201
I196
I201
tp410
atp411
a(g243
I1
(lp412
(I211
I122
I212
I122
tp413
a(I212
I122
I213
I122
tp414
a(I213
I122
I214
I122
tp415
a(I214
I122
I216
I122
tp416
a(I216
I122
I217
I122
tp417
a(I217
I122
I218
I122
tp418
a(I218
I122
I219
I121
tp419
a(I219
I121
I221
I121
tp420
a(I221
I121
I222
I121
tp421
a(I222
I121
I224
I121
tp422
a(I224
I121
I225
I121
tp423
a(I225
I121
I226
I121
tp424
a(I226
I121
I228
I121
tp425
a(I228
I121
I229
I121
tp426
a(I229
I121
I230
I121
tp427
a(I230
I121
I232
I122
tp428
a(I232
I122
I235
I123
tp429
a(I235
I123
I236
I124
tp430
a(I236
I124
I238
I124
tp431
a(I238
I124
I240
I125
tp432
a(I240
I125
I241
I126
tp433
a(I241
I126
I242
I127
tp434
a(I242
I127
I244
I127
tp435
a(I244
I127
I246
I129
tp436
a(I246
I129
I247
I129
tp437
a(I247
I129
I248
I130
tp438
a(I248
I130
I249
I130
tp439
a(I249
I130
I249
I131
tp440
a(I249
I131
I250
I131
tp441
a(I250
I131
I251
I132
tp442
a(I251
I132
I252
I133
tp443
a(I252
I133
I253
I134
tp444
a(I253
I134
I254
I135
tp445
a(I254
I135
I255
I136
tp446
a(I255
I136
I256
I137
tp447
a(I256
I137
I257
I138
tp448
a(I257
I138
I257
I139
tp449
a(I257
I139
I258
I140
tp450
a(I258
I140
I259
I141
tp451
a(I259
I141
I260
I142
tp452
a(I260
I142
I260
I143
tp453
a(I260
I143
I261
I144
tp454
a(I261
I144
I262
I145
tp455
a(I262
I145
I262
I146
tp456
a(I262
I146
I263
I147
tp457
a(I263
I147
I263
I149
tp458
a(I263
I149
I264
I150
tp459
a(I264
I150
I264
I152
tp460
a(I264
I152
I265
I156
tp461
a(I265
I156
I265
I161
tp462
a(I265
I161
I265
I164
tp463
a(I265
I164
I265
I169
tp464
a(I265
I169
I265
I172
tp465
a(I265
I172
I265
I175
tp466
a(I265
I175
I265
I179
tp467
a(I265
I179
I265
I184
tp468
a(I265
I184
I265
I187
tp469
a(I265
I187
I265
I191
tp470
a(I265
I191
I265
I193
tp471
a(I265
I193
I264
I196
tp472
a(I264
I196
I264
I198
tp473
a(I264
I198
I263
I200
tp474
a(I263
I200
I263
I204
tp475
a(I263
I204
I263
I205
tp476
a(I263
I205
I262
I206
tp477
a(I262
I206
I262
I208
tp478
a(I262
I208
I262
I209
tp479
a(I262
I209
I262
I210
tp480
a(I262
I210
I262
I211
tp481
a(I262
I211
I261
I211
tp482
a(I261
I211
I261
I212
tp483
atp484
a(g243
I1
(lp485
(I209
I160
I210
I160
tp486
a(I210
I160
I212
I160
tp487
a(I212
I160
I215
I160
tp488
a(I215
I160
I218
I160
tp489
a(I218
I160
I220
I161
tp490
a(I220
I161
I223
I161
tp491
a(I223
I161
I227
I161
tp492
a(I227
I161
I230
I162
tp493
a(I230
I162
I234
I163
tp494
a(I234
I163
I236
I163
tp495
a(I236
I163
I238
I163
tp496
a(I238
I163
I240
I163
tp497
a(I240
I163
I243
I163
tp498
a(I243
I163
I244
I163
tp499
a(I244
I163
I245
I163
tp500
a(I245
I163
I246
I163
tp501
a(I246
I163
I247
I163
tp502
a(I247
I163
I248
I163
tp503
a(I248
I163
I249
I163
tp504
a(I249
I163
I249
I164
tp505
a(I249
I164
I249
I165
tp506
a(I249
I165
I249
I166
tp507
atp508
a(g243
I1
(lp509
(I198
I200
I199
I201
tp510
a(I199
I201
I200
I201
tp511
a(I200
I201
I201
I201
tp512
a(I201
I201
I202
I201
tp513
a(I202
I201
I203
I201
tp514
a(I203
I201
I204
I201
tp515
a(I204
I201
I205
I201
tp516
a(I205
I201
I206
I201
tp517
a(I206
I201
I207
I201
tp518
a(I207
I201
I208
I201
tp519
a(I208
I201
I209
I201
tp520
a(I209
I201
I210
I201
tp521
a(I210
I201
I212
I201
tp522
a(I212
I201
I213
I201
tp523
a(I213
I201
I217
I202
tp524
a(I217
I202
I219
I202
tp525
a(I219
I202
I221
I202
tp526
a(I221
I202
I222
I203
tp527
a(I222
I203
I224
I203
tp528
a(I224
I203
I226
I203
tp529
a(I226
I203
I230
I203
tp530
a(I230
I203
I232
I205
tp531
a(I232
I205
I234
I205
tp532
a(I234
I205
I237
I205
tp533
a(I237
I205
I238
I205
tp534
a(I238
I205
I239
I205
tp535
a(I239
I205
I241
I205
tp536
a(I241
I205
I242
I205
tp537
a(I242
I205
I243
I205
tp538
a(I243
I205
I244
I205
tp539
a(I244
I205
I245
I205
tp540
a(I245
I205
I246
I205
tp541
a(I246
I205
I246
I204
tp542
a(I246
I204
I247
I204
tp543
a(I247
I204
I248
I204
tp544
atp545
a(g243
I1
(lp546
(I463
I58
I464
I58
tp547
a(I464
I58
I465
I61
tp548
a(I465
I61
I467
I63
tp549
a(I467
I63
I468
I66
tp550
a(I468
I66
I469
I68
tp551
a(I469
I68
I470
I72
tp552
a(I470
I72
I470
I75
tp553
a(I470
I75
I471
I79
tp554
a(I471
I79
I472
I82
tp555
a(I472
I82
I472
I84
tp556
a(I472
I84
I472
I86
tp557
a(I472
I86
I473
I88
tp558
a(I473
I88
I473
I89
tp559
a(I473
I89
I473
I91
tp560
a(I473
I91
I473
I92
tp561
a(I473
I92
I473
I93
tp562
a(I473
I93
I473
I94
tp563
a(I473
I94
I473
I95
tp564
a(I473
I95
I471
I95
tp565
atp566
a(g243
I1
(lp567
(I429
I96
I429
I97
tp568
a(I429
I97
I430
I97
tp569
a(I430
I97
I433
I98
tp570
a(I433
I98
I434
I98
tp571
a(I434
I98
I436
I99
tp572
a(I436
I99
I437
I99
tp573
a(I437
I99
I439
I99
tp574
a(I439
I99
I442
I101
tp575
a(I442
I101
I444
I102
tp576
a(I444
I102
I448
I103
tp577
a(I448
I103
I451
I105
tp578
a(I451
I105
I455
I106
tp579
a(I455
I106
I460
I107
tp580
a(I460
I107
I463
I109
tp581
a(I463
I109
I466
I109
tp582
a(I466
I109
I469
I111
tp583
a(I469
I111
I473
I113
tp584
a(I473
I113
I477
I114
tp585
a(I477
I114
I480
I115
tp586
a(I480
I115
I482
I116
tp587
a(I482
I116
I484
I117
tp588
a(I484
I117
I485
I117
tp589
a(I485
I117
I486
I118
tp590
a(I486
I118
I487
I118
tp591
a(I487
I118
I488
I118
tp592
a(I488
I118
I488
I119
tp593
a(I488
I119
I489
I120
tp594
atp595
a(g243
I1
(lp596
(I465
I132
I465
I133
tp597
a(I465
I133
I465
I134
tp598
a(I465
I134
I465
I137
tp599
a(I465
I137
I465
I138
tp600
a(I465
I138
I464
I140
tp601
a(I464
I140
I464
I141
tp602
a(I464
I141
I464
I143
tp603
a(I464
I143
I464
I144
tp604
a(I464
I144
I464
I145
tp605
a(I464
I145
I464
I146
tp606
a(I464
I146
I464
I147
tp607
a(I464
I147
I465
I148
tp608
a(I465
I148
I465
I149
tp609
a(I465
I149
I466
I150
tp610
a(I466
I150
I467
I150
tp611
atp612
a(g243
I1
(lp613
(I483
I146
I481
I146
tp614
a(I481
I146
I479
I146
tp615
a(I479
I146
I475
I146
tp616
a(I475
I146
I469
I146
tp617
a(I469
I146
I464
I146
tp618
a(I464
I146
I453
I147
tp619
a(I453
I147
I449
I147
tp620
a(I449
I147
I444
I147
tp621
a(I444
I147
I441
I147
tp622
a(I441
I147
I437
I147
tp623
a(I437
I147
I434
I147
tp624
a(I434
I147
I432
I147
tp625
atp626
a(g243
I1
(lp627
(I418
I142
I417
I142
tp628
a(I417
I142
I417
I144
tp629
a(I417
I144
I416
I146
tp630
a(I416
I146
I415
I148
tp631
a(I415
I148
I413
I151
tp632
a(I413
I151
I412
I156
tp633
a(I412
I156
I410
I161
tp634
a(I410
I161
I408
I166
tp635
a(I408
I166
I403
I173
tp636
a(I403
I173
I399
I178
tp637
a(I399
I178
I396
I183
tp638
a(I396
I183
I392
I189
tp639
a(I392
I189
I387
I194
tp640
a(I387
I194
I385
I199
tp641
a(I385
I199
I381
I205
tp642
a(I381
I205
I377
I209
tp643
a(I377
I209
I375
I212
tp644
a(I375
I212
I373
I215
tp645
a(I373
I215
I370
I218
tp646
a(I370
I218
I370
I219
tp647
a(I370
I219
I369
I220
tp648
a(I369
I220
I368
I220
tp649
a(I368
I220
I367
I221
tp650
a(I367
I221
I366
I221
tp651
a(I366
I221
I365
I221
tp652
a(I365
I221
I364
I222
tp653
atp654
a(g243
I1
(lp655
(I400
I167
I400
I166
tp656
a(I400
I166
I401
I166
tp657
a(I401
I166
I403
I165
tp658
a(I403
I165
I405
I165
tp659
a(I405
I165
I407
I165
tp660
a(I407
I165
I412
I165
tp661
a(I412
I165
I414
I164
tp662
a(I414
I164
I418
I164
tp663
a(I418
I164
I421
I164
tp664
a(I421
I164
I423
I164
tp665
a(I423
I164
I425
I164
tp666
a(I425
I164
I427
I164
tp667
a(I427
I164
I429
I164
tp668
a(I429
I164
I433
I164
tp669
a(I433
I164
I435
I165
tp670
a(I435
I165
I438
I168
tp671
a(I438
I168
I442
I170
tp672
a(I442
I170
I445
I172
tp673
a(I445
I172
I448
I174
tp674
a(I448
I174
I451
I177
tp675
a(I451
I177
I453
I179
tp676
a(I453
I179
I455
I180
tp677
a(I455
I180
I458
I182
tp678
a(I458
I182
I458
I183
tp679
a(I458
I183
I459
I184
tp680
a(I459
I184
I460
I188
tp681
a(I460
I188
I460
I189
tp682
a(I460
I189
I461
I191
tp683
a(I461
I191
I462
I194
tp684
a(I462
I194
I462
I196
tp685
a(I462
I196
I463
I199
tp686
a(I463
I199
I464
I203
tp687
a(I464
I203
I465
I207
tp688
a(I465
I207
I467
I213
tp689
a(I467
I213
I468
I219
tp690
a(I468
I219
I468
I224
tp691
a(I468
I224
I468
I230
tp692
a(I468
I230
I468
I236
tp693
a(I468
I236
I468
I244
tp694
a(I468
I244
I467
I252
tp695
a(I467
I252
I466
I258
tp696
a(I466
I258
I465
I266
tp697
a(I465
I266
I464
I273
tp698
a(I464
I273
I464
I277
tp699
a(I464
I277
I462
I282
tp700
a(I462
I282
I461
I288
tp701
a(I461
I288
I460
I292
tp702
a(I460
I292
I460
I293
tp703
a(I460
I293
I459
I295
tp704
a(I459
I295
I459
I296
tp705
a(I459
I296
I458
I296
tp706
a(I458
I296
I458
I297
tp707
a(I458
I297
I457
I297
tp708
a(I457
I297
I456
I297
tp709
a(I456
I297
I454
I297
tp710
a(I454
I297
I450
I294
tp711
a(I450
I294
I444
I286
tp712
a(I444
I286
I441
I280
tp713
a(I441
I280
I437
I272
tp714
atp715
a(g243
I1
(lp716
(I434
I191
I433
I191
tp717
a(I433
I191
I429
I191
tp718
a(I429
I191
I426
I191
tp719
a(I426
I191
I424
I192
tp720
a(I424
I192
I420
I193
tp721
a(I420
I193
I417
I194
tp722
a(I417
I194
I413
I195
tp723
a(I413
I195
I411
I196
tp724
a(I411
I196
I408
I196
tp725
a(I408
I196
I406
I198
tp726
a(I406
I198
I404
I199
tp727
a(I404
I199
I401
I200
tp728
a(I401
I200
I398
I201
tp729
a(I398
I201
I396
I201
tp730
a(I396
I201
I395
I202
tp731
atp732
a(g243
I1
(lp733
(I434
I210
I435
I210
tp734
a(I435
I210
I436
I210
tp735
a(I436
I210
I436
I211
tp736
a(I436
I211
I436
I212
tp737
a(I436
I212
I434
I213
tp738
atp739
a(g243
I1
(lp740
(I364
I223
I363
I223
tp741
a(I363
I223
I363
I224
tp742
a(I363
I224
I364
I226
tp743
a(I364
I226
I365
I229
tp744
a(I365
I229
I366
I232
tp745
a(I366
I232
I367
I234
tp746
a(I367
I234
I368
I235
tp747
a(I368
I235
I369
I237
tp748
a(I369
I237
I369
I239
tp749
a(I369
I239
I370
I240
tp750
a(I370
I240
I371
I241
tp751
a(I371
I241
I371
I242
tp752
a(I371
I242
I372
I243
tp753
a(I372
I243
I372
I244
tp754
a(I372
I244
I373
I244
tp755
a(I373
I244
I373
I245
tp756
a(I373
I245
I374
I245
tp757
atp758
a(g243
I1
(lp759
(I399
I229
I401
I229
tp760
a(I401
I229
I402
I229
tp761
a(I402
I229
I403
I230
tp762
a(I403
I230
I404
I230
tp763
a(I404
I230
I405
I231
tp764
a(I405
I231
I406
I232
tp765
a(I406
I232
I407
I233
tp766
a(I407
I233
I407
I234
tp767
a(I407
I234
I408
I235
tp768
a(I408
I235
I408
I236
tp769
a(I408
I236
I408
I237
tp770
a(I408
I237
I408
I238
tp771
a(I408
I238
I408
I239
tp772
a(I408
I239
I408
I240
tp773
a(I408
I240
I408
I242
tp774
a(I408
I242
I408
I243
tp775
a(I408
I243
I407
I244
tp776
a(I407
I244
I405
I245
tp777
a(I405
I245
I404
I246
tp778
a(I404
I246
I402
I249
tp779
a(I402
I249
I399
I249
tp780
a(I399
I249
I397
I250
tp781
a(I397
I250
I393
I250
tp782
a(I393
I250
I390
I251
tp783
a(I390
I251
I386
I252
tp784
a(I386
I252
I381
I252
tp785
a(I381
I252
I378
I252
tp786
a(I378
I252
I374
I252
tp787
a(I374
I252
I371
I252
tp788
a(I371
I252
I368
I252
tp789
a(I368
I252
I366
I252
tp790
atp791
a(g243
I1
(lp792
(I363
I252
I364
I252
tp793
a(I364
I252
I367
I252
tp794
a(I367
I252
I369
I252
tp795
a(I369
I252
I371
I252
tp796
a(I371
I252
I373
I252
tp797
a(I373
I252
I375
I252
tp798
a(I375
I252
I377
I252
tp799
a(I377
I252
I379
I252
tp800
a(I379
I252
I382
I252
tp801
a(I382
I252
I383
I252
tp802
a(I383
I252
I385
I252
tp803
a(I385
I252
I386
I252
tp804
a(I386
I252
I387
I252
tp805
a(I387
I252
I388
I252
tp806
a(I388
I252
I389
I252
tp807
a(I389
I252
I390
I252
tp808
a(I390
I252
I391
I252
tp809
a(I391
I252
I392
I253
tp810
atp811
a(g243
I1
(lp812
(I574
I117
I575
I119
tp813
a(I575
I119
I577
I121
tp814
a(I577
I121
I579
I124
tp815
a(I579
I124
I581
I128
tp816
a(I581
I128
I583
I131
tp817
a(I583
I131
I585
I135
tp818
a(I585
I135
I591
I142
tp819
a(I591
I142
I595
I147
tp820
a(I595
I147
I598
I150
tp821
a(I598
I150
I600
I154
tp822
a(I600
I154
I602
I157
tp823
a(I602
I157
I603
I160
tp824
a(I603
I160
I605
I161
tp825
a(I605
I161
I606
I163
tp826
a(I606
I163
I607
I164
tp827
a(I607
I164
I608
I165
tp828
a(I608
I165
I608
I166
tp829
a(I608
I166
I609
I166
tp830
atp831
a(g243
I1
(lp832
(I600
I136
I598
I141
tp833
a(I598
I141
I594
I149
tp834
a(I594
I149
I591
I154
tp835
a(I591
I154
I590
I159
tp836
a(I590
I159
I589
I162
tp837
a(I589
I162
I587
I166
tp838
a(I587
I166
I587
I169
tp839
a(I587
I169
I585
I173
tp840
a(I585
I173
I584
I176
tp841
a(I584
I176
I584
I181
tp842
a(I584
I181
I584
I183
tp843
a(I584
I183
I583
I186
tp844
a(I583
I186
I583
I190
tp845
a(I583
I190
I583
I192
tp846
a(I583
I192
I583
I194
tp847
a(I583
I194
I583
I195
tp848
a(I583
I195
I583
I196
tp849
a(I583
I196
I583
I197
tp850
a(I583
I197
I583
I196
tp851
atp852
a(g243
I1
(lp853
(I582
I148
I582
I147
tp854
a(I582
I147
I583
I147
tp855
a(I583
I147
I584
I147
tp856
a(I584
I147
I585
I147
tp857
a(I585
I147
I586
I147
tp858
a(I586
I147
I588
I147
tp859
a(I588
I147
I591
I149
tp860
a(I591
I149
I593
I151
tp861
a(I593
I151
I595
I152
tp862
a(I595
I152
I598
I154
tp863
a(I598
I154
I601
I155
tp864
a(I601
I155
I602
I156
tp865
a(I602
I156
I604
I157
tp866
a(I604
I157
I605
I159
tp867
a(I605
I159
I606
I160
tp868
a(I606
I160
I607
I160
tp869
a(I607
I160
I608
I161
tp870
a(I608
I161
I609
I162
tp871
a(I609
I162
I610
I163
tp872
a(I610
I163
I610
I164
tp873
a(I610
I164
I611
I165
tp874
a(I611
I165
I611
I167
tp875
a(I611
I167
I611
I168
tp876
a(I611
I168
I611
I171
tp877
a(I611
I171
I611
I173
tp878
a(I611
I173
I611
I175
tp879
a(I611
I175
I609
I180
tp880
a(I609
I180
I608
I182
tp881
a(I608
I182
I605
I184
tp882
a(I605
I184
I604
I187
tp883
a(I604
I187
I603
I191
tp884
a(I603
I191
I601
I192
tp885
a(I601
I192
I600
I194
tp886
a(I600
I194
I599
I196
tp887
a(I599
I196
I598
I196
tp888
a(I598
I196
I598
I197
tp889
a(I598
I197
I597
I197
tp890
a(I597
I197
I596
I197
tp891
atp892
a(g243
I1
(lp893
(I590
I195
I590
I194
tp894
a(I590
I194
I591
I194
tp895
a(I591
I194
I592
I194
tp896
a(I592
I194
I593
I194
tp897
a(I593
I194
I594
I194
tp898
a(I594
I194
I595
I194
tp899
a(I595
I194
I597
I194
tp900
a(I597
I194
I598
I194
tp901
a(I598
I194
I600
I194
tp902
a(I600
I194
I601
I194
tp903
a(I601
I194
I602
I194
tp904
a(I602
I194
I604
I194
tp905
a(I604
I194
I605
I194
tp906
a(I605
I194
I606
I193
tp907
a(I606
I193
I608
I193
tp908
a(I608
I193
I610
I193
tp909
a(I610
I193
I615
I193
tp910
a(I615
I193
I622
I192
tp911
a(I622
I192
I628
I189
tp912
atp913
a(g243
I1
(lp914
(I703
I115
I703
I116
tp915
a(I703
I116
I703
I119
tp916
a(I703
I119
I703
I120
tp917
a(I703
I120
I703
I122
tp918
a(I703
I122
I704
I124
tp919
a(I704
I124
I705
I126
tp920
a(I705
I126
I707
I129
tp921
a(I707
I129
I708
I131
tp922
a(I708
I131
I711
I134
tp923
a(I711
I134
I712
I135
tp924
a(I712
I135
I713
I137
tp925
a(I713
I137
I714
I138
tp926
a(I714
I138
I715
I140
tp927
a(I715
I140
I716
I141
tp928
a(I716
I141
I717
I142
tp929
a(I717
I142
I718
I144
tp930
a(I718
I144
I719
I145
tp931
a(I719
I145
I719
I146
tp932
a(I719
I146
I719
I147
tp933
a(I719
I147
I719
I148
tp934
a(I719
I148
I717
I149
tp935
a(I717
I149
I715
I150
tp936
a(I715
I150
I711
I151
tp937
a(I711
I151
I706
I154
tp938
a(I706
I154
I700
I157
tp939
a(I700
I157
I694
I160
tp940
a(I694
I160
I689
I164
tp941
a(I689
I164
I682
I168
tp942
a(I682
I168
I675
I170
tp943
a(I675
I170
I671
I173
tp944
a(I671
I173
I666
I175
tp945
a(I666
I175
I664
I177
tp946
a(I664
I177
I661
I180
tp947
a(I661
I180
I660
I181
tp948
a(I660
I181
I659
I183
tp949
a(I659
I183
I659
I185
tp950
a(I659
I185
I659
I187
tp951
a(I659
I187
I659
I189
tp952
a(I659
I189
I661
I197
tp953
a(I661
I197
I662
I200
tp954
a(I662
I200
I663
I206
tp955
a(I663
I206
I663
I211
tp956
a(I663
I211
I663
I217
tp957
a(I663
I217
I663
I222
tp958
a(I663
I222
I663
I227
tp959
a(I663
I227
I663
I231
tp960
a(I663
I231
I663
I236
tp961
a(I663
I236
I662
I241
tp962
a(I662
I241
I661
I246
tp963
a(I661
I246
I658
I249
tp964
a(I658
I249
I656
I254
tp965
a(I656
I254
I654
I256
tp966
a(I654
I256
I651
I259
tp967
a(I651
I259
I649
I261
tp968
a(I649
I261
I646
I263
tp969
a(I646
I263
I645
I263
tp970
a(I645
I263
I644
I263
tp971
a(I644
I263
I642
I263
tp972
a(I642
I263
I641
I263
tp973
a(I641
I263
I640
I263
tp974
a(I640
I263
I638
I263
tp975
a(I638
I263
I635
I263
tp976
a(I635
I263
I633
I263
tp977
a(I633
I263
I630
I261
tp978
a(I630
I261
I627
I259
tp979
a(I627
I259
I623
I255
tp980
a(I623
I255
I619
I250
tp981
a(I619
I250
I615
I244
tp982
a(I615
I244
I609
I233
tp983
atp984
a(g243
I1
(lp985
(I644
I167
I644
I168
tp986
a(I644
I168
I643
I171
tp987
a(I643
I171
I641
I176
tp988
a(I641
I176
I639
I181
tp989
a(I639
I181
I636
I187
tp990
a(I636
I187
I633
I193
tp991
a(I633
I193
I629
I199
tp992
a(I629
I199
I625
I208
tp993
a(I625
I208
I619
I217
tp994
a(I619
I217
I612
I229
tp995
a(I612
I229
I607
I236
tp996
a(I607
I236
I601
I245
tp997
a(I601
I245
I590
I257
tp998
a(I590
I257
I585
I264
tp999
a(I585
I264
I580
I269
tp1000
a(I580
I269
I576
I274
tp1001
a(I576
I274
I572
I279
tp1002
a(I572
I279
I570
I283
tp1003
a(I570
I283
I569
I286
tp1004
a(I569
I286
I566
I288
tp1005
a(I566
I288
I566
I290
tp1006
a(I566
I290
I565
I291
tp1007
a(I565
I291
I565
I292
tp1008
a(I565
I292
I566
I292
tp1009
a(I566
I292
I567
I292
tp1010
a(I567
I292
I568
I292
tp1011
a(I568
I292
I571
I291
tp1012
a(I571
I291
I571
I290
tp1013
a(I571
I290
I573
I290
tp1014
a(I573
I290
I575
I288
tp1015
a(I575
I288
I578
I287
tp1016
a(I578
I287
I583
I285
tp1017
atp1018
a(g243
I1
(lp1019
(I720
I173
I721
I173
tp1020
a(I721
I173
I722
I173
tp1021
a(I722
I173
I723
I174
tp1022
a(I723
I174
I726
I176
tp1023
a(I726
I176
I728
I178
tp1024
a(I728
I178
I730
I180
tp1025
a(I730
I180
I733
I182
tp1026
a(I733
I182
I737
I184
tp1027
a(I737
I184
I742
I187
tp1028
a(I742
I187
I746
I189
tp1029
a(I746
I189
I751
I191
tp1030
a(I751
I191
I756
I194
tp1031
a(I756
I194
I763
I197
tp1032
a(I763
I197
I768
I199
tp1033
a(I768
I199
I771
I199
tp1034
a(I771
I199
I773
I200
tp1035
a(I773
I200
I775
I201
tp1036
a(I775
I201
I776
I201
tp1037
a(I776
I201
I777
I201
tp1038
a(I777
I201
I777
I202
tp1039
a(I777
I202
I777
I203
tp1040
a(I777
I203
I773
I203
tp1041
a(I773
I203
I770
I203
tp1042
atp1043
a(g243
I1
(lp1044
(I712
I196
I711
I198
tp1045
a(I711
I198
I709
I200
tp1046
a(I709
I200
I708
I202
tp1047
a(I708
I202
I707
I205
tp1048
a(I707
I205
I704
I208
tp1049
a(I704
I208
I702
I211
tp1050
a(I702
I211
I700
I214
tp1051
a(I700
I214
I699
I218
tp1052
a(I699
I218
I696
I221
tp1053
a(I696
I221
I695
I223
tp1054
a(I695
I223
I695
I227
tp1055
a(I695
I227
I695
I229
tp1056
a(I695
I229
I695
I230
tp1057
a(I695
I230
I694
I230
tp1058
a(I694
I230
I694
I231
tp1059
a(I694
I231
I695
I231
tp1060
a(I695
I231
I696
I231
tp1061
a(I696
I231
I696
I230
tp1062
a(I696
I230
I697
I229
tp1063
atp1064
a(g243
I1
(lp1065
(I701
I200
I702
I200
tp1066
a(I702
I200
I703
I200
tp1067
a(I703
I200
I704
I200
tp1068
a(I704
I200
I705
I200
tp1069
a(I705
I200
I706
I203
tp1070
a(I706
I203
I707
I204
tp1071
a(I707
I204
I708
I205
tp1072
a(I708
I205
I708
I206
tp1073
a(I708
I206
I709
I207
tp1074
a(I709
I207
I709
I208
tp1075
a(I709
I208
I710
I210
tp1076
a(I710
I210
I711
I211
tp1077
a(I711
I211
I711
I213
tp1078
a(I711
I213
I712
I214
tp1079
a(I712
I214
I712
I215
tp1080
a(I712
I215
I712
I216
tp1081
a(I712
I216
I712
I218
tp1082
a(I712
I218
I712
I219
tp1083
a(I712
I219
I712
I221
tp1084
a(I712
I221
I712
I222
tp1085
a(I712
I222
I711
I224
tp1086
a(I711
I224
I710
I226
tp1087
a(I710
I226
I708
I228
tp1088
a(I708
I228
I707
I230
tp1089
a(I707
I230
I706
I232
tp1090
a(I706
I232
I704
I233
tp1091
a(I704
I233
I703
I234
tp1092
a(I703
I234
I702
I235
tp1093
a(I702
I235
I701
I236
tp1094
a(I701
I236
I699
I236
tp1095
a(I699
I236
I698
I237
tp1096
a(I698
I237
I697
I237
tp1097
a(I697
I237
I696
I238
tp1098
a(I696
I238
I694
I238
tp1099
a(I694
I238
I694
I239
tp1100
a(I694
I239
I693
I239
tp1101
a(I693
I239
I692
I239
tp1102
a(I692
I239
I693
I239
tp1103
a(I693
I239
I694
I240
tp1104
a(I694
I240
I695
I240
tp1105
a(I695
I240
I696
I240
tp1106
a(I696
I240
I697
I240
tp1107
a(I697
I240
I698
I240
tp1108
a(I698
I240
I699
I240
tp1109
a(I699
I240
I701
I240
tp1110
a(I701
I240
I702
I240
tp1111
a(I702
I240
I703
I240
tp1112
a(I703
I240
I704
I240
tp1113
a(I704
I240
I705
I240
tp1114
a(I705
I240
I705
I241
tp1115
a(I705
I241
I706
I241
tp1116
atp1117
a(g243
I1
(lp1118
(I749
I211
I749
I212
tp1119
a(I749
I212
I748
I214
tp1120
a(I748
I214
I748
I217
tp1121
a(I748
I217
I746
I219
tp1122
a(I746
I219
I744
I222
tp1123
a(I744
I222
I740
I231
tp1124
a(I740
I231
I735
I236
tp1125
a(I735
I236
I732
I241
tp1126
a(I732
I241
I726
I247
tp1127
a(I726
I247
I719
I255
tp1128
a(I719
I255
I711
I262
tp1129
a(I711
I262
I704
I270
tp1130
a(I704
I270
I695
I277
tp1131
a(I695
I277
I686
I285
tp1132
a(I686
I285
I675
I291
tp1133
a(I675
I291
I664
I300
tp1134
a(I664
I300
I654
I304
tp1135
a(I654
I304
I647
I310
tp1136
a(I647
I310
I638
I316
tp1137
a(I638
I316
I633
I320
tp1138
a(I633
I320
I630
I322
tp1139
a(I630
I322
I626
I324
tp1140
a(I626
I324
I625
I325
tp1141
a(I625
I325
I623
I326
tp1142
a(I623
I326
I622
I326
tp1143
a(I622
I326
I621
I327
tp1144
a(I621
I327
I620
I327
tp1145
a(I620
I327
I619
I328
tp1146
a(I619
I328
I618
I328
tp1147
a(I618
I328
I617
I329
tp1148
a(I617
I329
I616
I330
tp1149
a(I616
I330
I615
I330
tp1150
a(I615
I330
I614
I330
tp1151
a(I614
I330
I614
I331
tp1152
a(I614
I331
I613
I331
tp1153
a(I613
I331
I612
I332
tp1154
a(I612
I332
I611
I332
tp1155
a(I611
I332
I610
I333
tp1156
a(I610
I333
I609
I333
tp1157
a(I609
I333
I609
I332
tp1158
a(I609
I332
I608
I326
tp1159
atp1160
a(g243
I1
(lp1161
(I70
I231
I70
I232
tp1162
a(I70
I232
I70
I233
tp1163
a(I70
I233
I70
I234
tp1164
a(I70
I234
I70
I235
tp1165
a(I70
I235
I70
I237
tp1166
a(I70
I237
I70
I238
tp1167
a(I70
I238
I70
I240
tp1168
a(I70
I240
I70
I242
tp1169
a(I70
I242
I70
I243
tp1170
a(I70
I243
I69
I245
tp1171
a(I69
I245
I69
I247
tp1172
a(I69
I247
I68
I249
tp1173
a(I68
I249
I67
I253
tp1174
a(I67
I253
I67
I255
tp1175
a(I67
I255
I65
I258
tp1176
a(I65
I258
I64
I260
tp1177
a(I64
I260
I64
I262
tp1178
a(I64
I262
I63
I263
tp1179
a(I63
I263
I63
I264
tp1180
a(I63
I264
I63
I265
tp1181
a(I63
I265
I62
I266
tp1182
a(I62
I266
I62
I267
tp1183
a(I62
I267
I62
I268
tp1184
a(I62
I268
I62
I269
tp1185
a(I62
I269
I61
I270
tp1186
a(I61
I270
I61
I271
tp1187
a(I61
I271
I60
I271
tp1188
a(I60
I271
I60
I272
tp1189
atp1190
a(g243
I1
(lp1191
(I60
I264
I61
I264
tp1192
a(I61
I264
I61
I263
tp1193
a(I61
I263
I62
I263
tp1194
a(I62
I263
I63
I263
tp1195
a(I63
I263
I66
I265
tp1196
a(I66
I265
I68
I266
tp1197
a(I68
I266
I69
I268
tp1198
a(I69
I268
I71
I269
tp1199
a(I71
I269
I72
I270
tp1200
a(I72
I270
I73
I271
tp1201
a(I73
I271
I73
I272
tp1202
a(I73
I272
I74
I272
tp1203
a(I74
I272
I75
I272
tp1204
a(I75
I272
I76
I272
tp1205
a(I76
I272
I77
I271
tp1206
a(I77
I271
I79
I270
tp1207
a(I79
I270
I80
I268
tp1208
a(I80
I268
I81
I266
tp1209
a(I81
I266
I82
I265
tp1210
a(I82
I265
I83
I262
tp1211
a(I83
I262
I83
I261
tp1212
a(I83
I261
I84
I261
tp1213
a(I84
I261
I84
I260
tp1214
a(I84
I260
I84
I262
tp1215
a(I84
I262
I85
I263
tp1216
atp1217
a(g243
I1
(lp1218
(I60
I269
I61
I270
tp1219
a(I61
I270
I62
I270
tp1220
a(I62
I270
I64
I271
tp1221
a(I64
I271
I65
I271
tp1222
a(I65
I271
I67
I272
tp1223
a(I67
I272
I68
I273
tp1224
a(I68
I273
I70
I274
tp1225
a(I70
I274
I71
I275
tp1226
a(I71
I275
I73
I275
tp1227
a(I73
I275
I75
I276
tp1228
a(I75
I276
I76
I277
tp1229
a(I76
I277
I78
I278
tp1230
a(I78
I278
I81
I278
tp1231
a(I81
I278
I83
I279
tp1232
a(I83
I279
I84
I279
tp1233
a(I84
I279
I85
I279
tp1234
a(I85
I279
I86
I280
tp1235
a(I86
I280
I87
I280
tp1236
atp1237
a(g243
I1
(lp1238
(I84
I274
I83
I274
tp1239
a(I83
I274
I82
I276
tp1240
a(I82
I276
I81
I278
tp1241
a(I81
I278
I80
I279
tp1242
a(I80
I279
I78
I281
tp1243
a(I78
I281
I77
I283
tp1244
a(I77
I283
I76
I286
tp1245
a(I76
I286
I75
I288
tp1246
a(I75
I288
I74
I290
tp1247
a(I74
I290
I73
I291
tp1248
a(I73
I291
I72
I292
tp1249
a(I72
I292
I71
I293
tp1250
a(I71
I293
I71
I294
tp1251
a(I71
I294
I70
I294
tp1252
a(I70
I294
I69
I294
tp1253
a(I69
I294
I68
I295
tp1254
a(I68
I295
I67
I295
tp1255
a(I67
I295
I66
I295
tp1256
a(I66
I295
I65
I295
tp1257
a(I65
I295
I64
I295
tp1258
a(I64
I295
I63
I295
tp1259
atp1260
a(g243
I1
(lp1261
(I66
I291
I67
I292
tp1262
a(I67
I292
I68
I293
tp1263
a(I68
I293
I69
I295
tp1264
a(I69
I295
I71
I296
tp1265
a(I71
I296
I71
I298
tp1266
a(I71
I298
I74
I301
tp1267
a(I74
I301
I74
I302
tp1268
a(I74
I302
I75
I303
tp1269
a(I75
I303
I76
I304
tp1270
a(I76
I304
I76
I305
tp1271
a(I76
I305
I77
I306
tp1272
a(I77
I306
I77
I307
tp1273
a(I77
I307
I77
I308
tp1274
a(I77
I308
I77
I309
tp1275
a(I77
I309
I78
I309
tp1276
a(I78
I309
I79
I309
tp1277
a(I79
I309
I79
I307
tp1278
atp1279
a(g243
I1
(lp1280
(I92
I268
I92
I269
tp1281
a(I92
I269
I92
I271
tp1282
a(I92
I271
I92
I273
tp1283
a(I92
I273
I92
I274
tp1284
a(I92
I274
I92
I278
tp1285
a(I92
I278
I92
I281
tp1286
a(I92
I281
I92
I285
tp1287
a(I92
I285
I92
I288
tp1288
a(I92
I288
I92
I290
tp1289
a(I92
I290
I92
I294
tp1290
a(I92
I294
I92
I296
tp1291
a(I92
I296
I92
I297
tp1292
a(I92
I297
I92
I298
tp1293
a(I92
I298
I92
I299
tp1294
a(I92
I299
I91
I299
tp1295
atp1296
a(g243
I1
(lp1297
(I100
I267
I101
I267
tp1298
a(I101
I267
I102
I268
tp1299
a(I102
I268
I103
I270
tp1300
a(I103
I270
I104
I271
tp1301
a(I104
I271
I105
I272
tp1302
a(I105
I272
I106
I274
tp1303
a(I106
I274
I107
I275
tp1304
a(I107
I275
I108
I276
tp1305
a(I108
I276
I108
I277
tp1306
a(I108
I277
I108
I278
tp1307
a(I108
I278
I109
I280
tp1308
a(I109
I280
I109
I281
tp1309
a(I109
I281
I109
I282
tp1310
a(I109
I282
I109
I284
tp1311
a(I109
I284
I108
I285
tp1312
a(I108
I285
I106
I288
tp1313
a(I106
I288
I105
I289
tp1314
a(I105
I289
I103
I291
tp1315
a(I103
I291
I101
I292
tp1316
a(I101
I292
I97
I294
tp1317
a(I97
I294
I95
I295
tp1318
a(I95
I295
I93
I296
tp1319
a(I93
I296
I91
I299
tp1320
a(I91
I299
I90
I299
tp1321
a(I90
I299
I89
I300
tp1322
a(I89
I300
I88
I300
tp1323
atp1324
a(g243
I1
(lp1325
(I87
I300
I88
I300
tp1326
a(I88
I300
I89
I300
tp1327
a(I89
I300
I91
I301
tp1328
a(I91
I301
I93
I302
tp1329
a(I93
I302
I95
I303
tp1330
a(I95
I303
I96
I304
tp1331
a(I96
I304
I98
I305
tp1332
a(I98
I305
I100
I307
tp1333
a(I100
I307
I101
I309
tp1334
a(I101
I309
I102
I310
tp1335
a(I102
I310
I102
I311
tp1336
a(I102
I311
I103
I311
tp1337
a(I103
I311
I103
I313
tp1338
a(I103
I313
I103
I314
tp1339
a(I103
I314
I103
I315
tp1340
a(I103
I315
I103
I316
tp1341
a(I103
I316
I103
I317
tp1342
a(I103
I317
I103
I318
tp1343
atp1344
a(g243
I1
(lp1345
(I70
I331
I70
I332
tp1346
a(I70
I332
I70
I333
tp1347
a(I70
I333
I70
I334
tp1348
a(I70
I334
I70
I335
tp1349
a(I70
I335
I70
I336
tp1350
a(I70
I336
I70
I338
tp1351
a(I70
I338
I70
I340
tp1352
a(I70
I340
I70
I342
tp1353
a(I70
I342
I70
I344
tp1354
a(I70
I344
I70
I346
tp1355
a(I70
I346
I70
I349
tp1356
a(I70
I349
I70
I351
tp1357
a(I70
I351
I70
I353
tp1358
a(I70
I353
I70
I355
tp1359
a(I70
I355
I70
I356
tp1360
a(I70
I356
I70
I357
tp1361
a(I70
I357
I70
I358
tp1362
atp1363
a(g243
I1
(lp1364
(I56
I317
I58
I317
tp1365
a(I58
I317
I60
I317
tp1366
a(I60
I317
I65
I317
tp1367
a(I65
I317
I68
I317
tp1368
a(I68
I317
I72
I317
tp1369
a(I72
I317
I76
I317
tp1370
a(I76
I317
I80
I317
tp1371
a(I80
I317
I82
I317
tp1372
a(I82
I317
I84
I317
tp1373
a(I84
I317
I88
I318
tp1374
a(I88
I318
I90
I319
tp1375
a(I90
I319
I92
I320
tp1376
a(I92
I320
I93
I321
tp1377
a(I93
I321
I94
I321
tp1378
a(I94
I321
I95
I322
tp1379
a(I95
I322
I96
I323
tp1380
a(I96
I323
I96
I324
tp1381
a(I96
I324
I97
I325
tp1382
a(I97
I325
I97
I328
tp1383
a(I97
I328
I98
I329
tp1384
a(I98
I329
I98
I330
tp1385
a(I98
I330
I98
I332
tp1386
a(I98
I332
I98
I334
tp1387
a(I98
I334
I98
I335
tp1388
a(I98
I335
I98
I337
tp1389
a(I98
I337
I98
I338
tp1390
a(I98
I338
I98
I340
tp1391
a(I98
I340
I97
I342
tp1392
a(I97
I342
I96
I343
tp1393
a(I96
I343
I95
I345
tp1394
a(I95
I345
I94
I347
tp1395
a(I94
I347
I92
I350
tp1396
a(I92
I350
I91
I351
tp1397
a(I91
I351
I90
I353
tp1398
a(I90
I353
I89
I354
tp1399
a(I89
I354
I88
I354
tp1400
a(I88
I354
I88
I355
tp1401
a(I88
I355
I87
I355
tp1402
a(I87
I355
I87
I356
tp1403
a(I87
I356
I86
I356
tp1404
atp1405
a(g243
I1
(lp1406
(I68
I332
I69
I332
tp1407
a(I69
I332
I71
I332
tp1408
a(I71
I332
I72
I332
tp1409
a(I72
I332
I74
I332
tp1410
a(I74
I332
I76
I332
tp1411
a(I76
I332
I78
I333
tp1412
a(I78
I333
I81
I333
tp1413
a(I81
I333
I83
I334
tp1414
a(I83
I334
I84
I335
tp1415
a(I84
I335
I85
I335
tp1416
a(I85
I335
I85
I336
tp1417
a(I85
I336
I85
I338
tp1418
a(I85
I338
I85
I339
tp1419
a(I85
I339
I85
I340
tp1420
a(I85
I340
I85
I341
tp1421
a(I85
I341
I85
I342
tp1422
a(I85
I342
I85
I343
tp1423
a(I85
I343
I83
I343
tp1424
a(I83
I343
I81
I344
tp1425
atp1426
a(g243
I1
(lp1427
(I70
I346
I71
I346
tp1428
a(I71
I346
I72
I346
tp1429
a(I72
I346
I74
I346
tp1430
a(I74
I346
I75
I346
tp1431
a(I75
I346
I77
I346
tp1432
a(I77
I346
I79
I346
tp1433
a(I79
I346
I83
I346
tp1434
a(I83
I346
I86
I346
tp1435
a(I86
I346
I91
I346
tp1436
a(I91
I346
I97
I346
tp1437
a(I97
I346
I103
I346
tp1438
a(I103
I346
I109
I345
tp1439
a(I109
I345
I118
I343
tp1440
a(I118
I343
I124
I342
tp1441
a(I124
I342
I132
I339
tp1442
atp1443
a(g243
I1
(lp1444
(I171
I282
I172
I282
tp1445
a(I172
I282
I172
I284
tp1446
a(I172
I284
I174
I285
tp1447
a(I174
I285
I174
I287
tp1448
a(I174
I287
I175
I290
tp1449
a(I175
I290
I176
I293
tp1450
a(I176
I293
I176
I295
tp1451
a(I176
I295
I177
I297
tp1452
a(I177
I297
I177
I299
tp1453
a(I177
I299
I177
I301
tp1454
a(I177
I301
I177
I302
tp1455
a(I177
I302
I177
I303
tp1456
a(I177
I303
I177
I304
tp1457
a(I177
I304
I176
I304
tp1458
a(I176
I304
I174
I304
tp1459
a(I174
I304
I173
I304
tp1460
atp1461
a(g243
I1
(lp1462
(I160
I307
I162
I308
tp1463
a(I162
I308
I166
I308
tp1464
a(I166
I308
I168
I309
tp1465
a(I168
I309
I170
I310
tp1466
a(I170
I310
I172
I310
tp1467
a(I172
I310
I174
I311
tp1468
a(I174
I311
I176
I311
tp1469
a(I176
I311
I177
I312
tp1470
a(I177
I312
I178
I312
tp1471
a(I178
I312
I178
I313
tp1472
a(I178
I313
I177
I313
tp1473
a(I177
I313
I175
I314
tp1474
atp1475
a(g243
I1
(lp1476
(I164
I318
I164
I319
tp1477
a(I164
I319
I164
I320
tp1478
a(I164
I320
I165
I321
tp1479
a(I165
I321
I166
I322
tp1480
a(I166
I322
I167
I323
tp1481
a(I167
I323
I168
I323
tp1482
a(I168
I323
I169
I325
tp1483
a(I169
I325
I170
I325
tp1484
a(I170
I325
I172
I326
tp1485
a(I172
I326
I175
I326
tp1486
a(I175
I326
I177
I326
tp1487
a(I177
I326
I178
I326
tp1488
a(I178
I326
I179
I326
tp1489
atp1490
a(g243
I1
(lp1491
(I181
I327
I181
I328
tp1492
a(I181
I328
I179
I328
tp1493
a(I179
I328
I177
I328
tp1494
a(I177
I328
I174
I328
tp1495
a(I174
I328
I171
I328
tp1496
a(I171
I328
I168
I328
tp1497
a(I168
I328
I164
I328
tp1498
a(I164
I328
I160
I328
tp1499
a(I160
I328
I157
I328
tp1500
a(I157
I328
I154
I328
tp1501
atp1502
a(g243
I1
(lp1503
(I146
I328
I145
I328
tp1504
a(I145
I328
I144
I330
tp1505
a(I144
I330
I144
I333
tp1506
a(I144
I333
I144
I336
tp1507
a(I144
I336
I144
I338
tp1508
a(I144
I338
I144
I343
tp1509
a(I144
I343
I144
I346
tp1510
a(I144
I346
I144
I350
tp1511
a(I144
I350
I143
I353
tp1512
a(I143
I353
I143
I358
tp1513
a(I143
I358
I143
I361
tp1514
a(I143
I361
I142
I365
tp1515
a(I142
I365
I142
I368
tp1516
a(I142
I368
I142
I370
tp1517
a(I142
I370
I142
I372
tp1518
a(I142
I372
I142
I374
tp1519
a(I142
I374
I142
I375
tp1520
a(I142
I375
I143
I372
tp1521
atp1522
a(g243
I1
(lp1523
(I154
I330
I155
I330
tp1524
a(I155
I330
I156
I330
tp1525
a(I156
I330
I158
I330
tp1526
a(I158
I330
I160
I331
tp1527
a(I160
I331
I162
I332
tp1528
a(I162
I332
I164
I333
tp1529
a(I164
I333
I166
I334
tp1530
a(I166
I334
I168
I334
tp1531
a(I168
I334
I171
I335
tp1532
a(I171
I335
I173
I336
tp1533
a(I173
I336
I175
I338
tp1534
a(I175
I338
I176
I339
tp1535
a(I176
I339
I178
I340
tp1536
a(I178
I340
I178
I341
tp1537
a(I178
I341
I179
I342
tp1538
a(I179
I342
I180
I342
tp1539
a(I180
I342
I181
I344
tp1540
a(I181
I344
I182
I345
tp1541
a(I182
I345
I183
I346
tp1542
a(I183
I346
I183
I347
tp1543
a(I183
I347
I183
I349
tp1544
a(I183
I349
I183
I350
tp1545
a(I183
I350
I183
I351
tp1546
a(I183
I351
I183
I353
tp1547
a(I183
I353
I183
I355
tp1548
a(I183
I355
I183
I358
tp1549
a(I183
I358
I181
I361
tp1550
a(I181
I361
I178
I364
tp1551
a(I178
I364
I177
I367
tp1552
a(I177
I367
I175
I370
tp1553
a(I175
I370
I174
I373
tp1554
a(I174
I373
I173
I375
tp1555
a(I173
I375
I171
I377
tp1556
a(I171
I377
I171
I380
tp1557
a(I171
I380
I170
I381
tp1558
a(I170
I381
I169
I382
tp1559
a(I169
I382
I169
I383
tp1560
a(I169
I383
I168
I384
tp1561
a(I168
I384
I167
I385
tp1562
a(I167
I385
I166
I385
tp1563
a(I166
I385
I165
I385
tp1564
a(I165
I385
I164
I385
tp1565
a(I164
I385
I163
I384
tp1566
a(I163
I384
I160
I380
tp1567
atp1568
a(g243
I1
(lp1569
(I158
I340
I157
I340
tp1570
a(I157
I340
I156
I341
tp1571
a(I156
I341
I155
I342
tp1572
a(I155
I342
I154
I343
tp1573
a(I154
I343
I152
I344
tp1574
a(I152
I344
I151
I345
tp1575
a(I151
I345
I149
I347
tp1576
a(I149
I347
I148
I348
tp1577
a(I148
I348
I147
I349
tp1578
a(I147
I349
I146
I350
tp1579
a(I146
I350
I145
I351
tp1580
atp1581
a(g243
I1
(lp1582
(I158
I351
I161
I351
tp1583
a(I161
I351
I162
I351
tp1584
a(I162
I351
I164
I351
tp1585
a(I164
I351
I165
I351
tp1586
a(I165
I351
I166
I351
tp1587
a(I166
I351
I167
I351
tp1588
a(I167
I351
I168
I351
tp1589
a(I168
I351
I169
I351
tp1590
a(I169
I351
I169
I352
tp1591
a(I169
I352
I168
I352
tp1592
atp1593
a(g243
I1
(lp1594
(I157
I356
I157
I357
tp1595
a(I157
I357
I157
I358
tp1596
a(I157
I358
I157
I359
tp1597
a(I157
I359
I158
I359
tp1598
a(I158
I359
I159
I360
tp1599
a(I159
I360
I159
I361
tp1600
a(I159
I361
I159
I362
tp1601
atp1602
a(g243
I1
(lp1603
(I169
I355
I172
I355
tp1604
a(I172
I355
I175
I356
tp1605
a(I175
I356
I177
I357
tp1606
a(I177
I357
I180
I359
tp1607
a(I180
I359
I183
I360
tp1608
a(I183
I360
I184
I360
tp1609
a(I184
I360
I185
I361
tp1610
a(I185
I361
I186
I361
tp1611
a(I186
I361
I187
I362
tp1612
a(I187
I362
I187
I363
tp1613
a(I187
I363
I186
I364
tp1614
a(I186
I364
I181
I366
tp1615
a(I181
I366
I176
I366
tp1616
a(I176
I366
I168
I366
tp1617
a(I168
I366
I163
I366
tp1618
a(I163
I366
I158
I366
tp1619
atp1620
a(g243
I1
(lp1621
(I155
I366
I156
I366
tp1622
a(I156
I366
I157
I366
tp1623
a(I157
I366
I158
I366
tp1624
a(I158
I366
I159
I366
tp1625
a(I159
I366
I160
I366
tp1626
a(I160
I366
I162
I366
tp1627
a(I162
I366
I163
I366
tp1628
a(I163
I366
I164
I366
tp1629
a(I164
I366
I168
I366
tp1630
a(I168
I366
I169
I366
tp1631
a(I169
I366
I171
I366
tp1632
a(I171
I366
I173
I366
tp1633
a(I173
I366
I176
I366
tp1634
a(I176
I366
I180
I366
tp1635
atp1636
a(g243
I1
(lp1637
(I270
I322
I269
I322
tp1638
a(I269
I322
I268
I322
tp1639
a(I268
I322
I267
I322
tp1640
a(I267
I322
I265
I322
tp1641
a(I265
I322
I263
I322
tp1642
a(I263
I322
I261
I322
tp1643
a(I261
I322
I256
I322
tp1644
a(I256
I322
I248
I324
tp1645
a(I248
I324
I241
I325
tp1646
a(I241
I325
I233
I326
tp1647
a(I233
I326
I227
I328
tp1648
a(I227
I328
I211
I329
tp1649
a(I211
I329
I207
I329
tp1650
a(I207
I329
I200
I329
tp1651
a(I200
I329
I197
I331
tp1652
a(I197
I331
I194
I331
tp1653
a(I194
I331
I191
I331
tp1654
a(I191
I331
I189
I331
tp1655
a(I189
I331
I187
I331
tp1656
atp1657
a(g243
I1
(lp1658
(I221
I335
I221
I338
tp1659
a(I221
I338
I221
I342
tp1660
a(I221
I342
I221
I345
tp1661
a(I221
I345
I221
I350
tp1662
a(I221
I350
I221
I354
tp1663
a(I221
I354
I220
I358
tp1664
a(I220
I358
I219
I362
tp1665
a(I219
I362
I216
I365
tp1666
a(I216
I365
I215
I368
tp1667
a(I215
I368
I214
I371
tp1668
a(I214
I371
I214
I373
tp1669
a(I214
I373
I214
I374
tp1670
a(I214
I374
I214
I375
tp1671
a(I214
I375
I214
I376
tp1672
a(I214
I376
I214
I377
tp1673
atp1674
a(g243
I1
(lp1675
(I250
I338
I250
I339
tp1676
a(I250
I339
I250
I341
tp1677
a(I250
I341
I250
I344
tp1678
a(I250
I344
I250
I346
tp1679
a(I250
I346
I250
I349
tp1680
a(I250
I349
I250
I352
tp1681
a(I250
I352
I250
I357
tp1682
a(I250
I357
I250
I362
tp1683
a(I250
I362
I250
I368
tp1684
a(I250
I368
I250
I374
tp1685
a(I250
I374
I250
I380
tp1686
a(I250
I380
I250
I384
tp1687
a(I250
I384
I250
I388
tp1688
a(I250
I388
I250
I391
tp1689
a(I250
I391
I250
I397
tp1690
a(I250
I397
I250
I399
tp1691
a(I250
I399
I251
I400
tp1692
a(I251
I400
I251
I401
tp1693
a(I251
I401
I251
I402
tp1694
a(I251
I402
I251
I403
tp1695
a(I251
I403
I252
I403
tp1696
a(I252
I403
I253
I403
tp1697
a(I253
I403
I255
I403
tp1698
a(I255
I403
I259
I402
tp1699
a(I259
I402
I262
I400
tp1700
atp1701
a(g243
I1
(lp1702
(I218
I323
I217
I324
tp1703
a(I217
I324
I217
I325
tp1704
a(I217
I325
I217
I326
tp1705
a(I217
I326
I217
I327
tp1706
a(I217
I327
I216
I328
tp1707
a(I216
I328
I216
I329
tp1708
a(I216
I329
I216
I331
tp1709
a(I216
I331
I216
I333
tp1710
a(I216
I333
I216
I335
tp1711
a(I216
I335
I216
I337
tp1712
a(I216
I337
I216
I339
tp1713
a(I216
I339
I215
I340
tp1714
a(I215
I340
I215
I343
tp1715
a(I215
I343
I215
I344
tp1716
a(I215
I344
I215
I345
tp1717
a(I215
I345
I215
I346
tp1718
a(I215
I346
I215
I347
tp1719
a(I215
I347
I215
I348
tp1720
a(I215
I348
I215
I346
tp1721
a(I215
I346
I215
I344
tp1722
a(I215
I344
I215
I338
tp1723
atp1724
a(g243
I1
(lp1725
(I219
I320
I220
I320
tp1726
a(I220
I320
I221
I320
tp1727
a(I221
I320
I223
I322
tp1728
a(I223
I322
I224
I323
tp1729
a(I224
I323
I226
I324
tp1730
a(I226
I324
I228
I325
tp1731
a(I228
I325
I230
I326
tp1732
a(I230
I326
I232
I328
tp1733
a(I232
I328
I233
I329
tp1734
a(I233
I329
I234
I330
tp1735
a(I234
I330
I235
I330
tp1736
a(I235
I330
I235
I331
tp1737
a(I235
I331
I235
I332
tp1738
a(I235
I332
I236
I333
tp1739
a(I236
I333
I236
I335
tp1740
a(I236
I335
I236
I336
tp1741
a(I236
I336
I236
I339
tp1742
a(I236
I339
I236
I341
tp1743
a(I236
I341
I235
I343
tp1744
a(I235
I343
I233
I346
tp1745
a(I233
I346
I232
I348
tp1746
a(I232
I348
I230
I349
tp1747
a(I230
I349
I227
I352
tp1748
a(I227
I352
I224
I353
tp1749
a(I224
I353
I222
I354
tp1750
a(I222
I354
I220
I354
tp1751
a(I220
I354
I218
I354
tp1752
a(I218
I354
I216
I354
tp1753
a(I216
I354
I214
I354
tp1754
a(I214
I354
I210
I354
tp1755
a(I210
I354
I208
I354
tp1756
a(I208
I354
I206
I353
tp1757
a(I206
I353
I205
I352
tp1758
a(I205
I352
I204
I352
tp1759
a(I204
I352
I204
I351
tp1760
a(I204
I351
I204
I350
tp1761
a(I204
I350
I204
I349
tp1762
a(I204
I349
I206
I348
tp1763
a(I206
I348
I207
I348
tp1764
a(I207
I348
I209
I347
tp1765
a(I209
I347
I211
I347
tp1766
a(I211
I347
I214
I347
tp1767
a(I214
I347
I217
I347
tp1768
a(I217
I347
I221
I347
tp1769
a(I221
I347
I224
I347
tp1770
a(I224
I347
I229
I347
tp1771
a(I229
I347
I233
I347
tp1772
a(I233
I347
I237
I348
tp1773
a(I237
I348
I239
I348
tp1774
a(I239
I348
I241
I349
tp1775
a(I241
I349
I242
I350
tp1776
a(I242
I350
I243
I351
tp1777
a(I243
I351
I244
I351
tp1778
a(I244
I351
I245
I352
tp1779
a(I245
I352
I246
I352
tp1780
a(I246
I352
I248
I352
tp1781
atp1782
a(g243
I1
(lp1783
(I238
I321
I239
I321
tp1784
a(I239
I321
I241
I322
tp1785
a(I241
I322
I244
I323
tp1786
a(I244
I323
I247
I326
tp1787
a(I247
I326
I250
I328
tp1788
a(I250
I328
I253
I329
tp1789
a(I253
I329
I258
I331
tp1790
a(I258
I331
I262
I335
tp1791
a(I262
I335
I265
I337
tp1792
a(I265
I337
I267
I338
tp1793
a(I267
I338
I270
I340
tp1794
a(I270
I340
I271
I343
tp1795
a(I271
I343
I272
I344
tp1796
a(I272
I344
I272
I345
tp1797
a(I272
I345
I272
I346
tp1798
a(I272
I346
I272
I347
tp1799
a(I272
I347
I272
I349
tp1800
a(I272
I349
I272
I350
tp1801
a(I272
I350
I269
I352
tp1802
a(I269
I352
I266
I353
tp1803
a(I266
I353
I263
I354
tp1804
a(I263
I354
I258
I357
tp1805
a(I258
I357
I253
I358
tp1806
a(I253
I358
I250
I359
tp1807
a(I250
I359
I248
I360
tp1808
a(I248
I360
I245
I361
tp1809
a(I245
I361
I244
I361
tp1810
a(I244
I361
I243
I361
tp1811
a(I243
I361
I245
I362
tp1812
a(I245
I362
I246
I362
tp1813
a(I246
I362
I250
I364
tp1814
a(I250
I364
I251
I365
tp1815
a(I251
I365
I253
I366
tp1816
a(I253
I366
I255
I367
tp1817
a(I255
I367
I255
I370
tp1818
a(I255
I370
I256
I372
tp1819
a(I256
I372
I257
I373
tp1820
a(I257
I373
I257
I375
tp1821
a(I257
I375
I257
I377
tp1822
a(I257
I377
I257
I378
tp1823
a(I257
I378
I256
I380
tp1824
a(I256
I380
I254
I382
tp1825
a(I254
I382
I254
I383
tp1826
a(I254
I383
I252
I385
tp1827
a(I252
I385
I249
I387
tp1828
a(I249
I387
I248
I388
tp1829
a(I248
I388
I246
I389
tp1830
a(I246
I389
I244
I390
tp1831
a(I244
I390
I243
I391
tp1832
a(I243
I391
I242
I391
tp1833
a(I242
I391
I240
I392
tp1834
a(I240
I392
I239
I392
tp1835
a(I239
I392
I237
I392
tp1836
a(I237
I392
I236
I392
tp1837
a(I236
I392
I233
I390
tp1838
a(I233
I390
I230
I387
tp1839
a(I230
I387
I228
I384
tp1840
a(I228
I384
I225
I381
tp1841
a(I225
I381
I222
I374
tp1842
atp1843
a(g243
I1
(lp1844
(I223
I337
I224
I337
tp1845
a(I224
I337
I225
I337
tp1846
a(I225
I337
I225
I339
tp1847
a(I225
I339
I225
I340
tp1848
a(I225
I340
I225
I343
tp1849
a(I225
I343
I225
I346
tp1850
a(I225
I346
I225
I351
tp1851
a(I225
I351
I225
I357
tp1852
a(I225
I357
I224
I363
tp1853
a(I224
I363
I223
I368
tp1854
a(I223
I368
I222
I374
tp1855
a(I222
I374
I220
I379
tp1856
a(I220
I379
I218
I385
tp1857
a(I218
I385
I217
I389
tp1858
a(I217
I389
I215
I394
tp1859
a(I215
I394
I212
I398
tp1860
a(I212
I398
I211
I402
tp1861
a(I211
I402
I209
I404
tp1862
a(I209
I404
I208
I406
tp1863
a(I208
I406
I207
I408
tp1864
a(I207
I408
I206
I410
tp1865
a(I206
I410
I206
I411
tp1866
a(I206
I411
I205
I412
tp1867
a(I205
I412
I204
I413
tp1868
a(I204
I413
I204
I414
tp1869
a(I204
I414
I204
I415
tp1870
a(I204
I415
I204
I416
tp1871
a(I204
I416
I205
I416
tp1872
a(I205
I416
I206
I415
tp1873
atp1874
a(g243
I1
(lp1875
(I295
I354
I298
I354
tp1876
a(I298
I354
I299
I355
tp1877
a(I299
I355
I301
I356
tp1878
a(I301
I356
I302
I356
tp1879
a(I302
I356
I304
I357
tp1880
a(I304
I357
I306
I357
tp1881
a(I306
I357
I307
I357
tp1882
a(I307
I357
I308
I357
tp1883
a(I308
I357
I308
I358
tp1884
atp1885
a(g243
I1
(lp1886
(I262
I388
I261
I391
tp1887
a(I261
I391
I261
I393
tp1888
a(I261
I393
I261
I395
tp1889
a(I261
I395
I261
I396
tp1890
a(I261
I396
I261
I397
tp1891
a(I261
I397
I261
I398
tp1892
a(I261
I398
I262
I399
tp1893
a(I262
I399
I263
I399
tp1894
a(I263
I399
I264
I399
tp1895
a(I264
I399
I265
I398
tp1896
atp1897
a(g243
I1
(lp1898
(I283
I375
I284
I375
tp1899
a(I284
I375
I285
I375
tp1900
a(I285
I375
I287
I376
tp1901
a(I287
I376
I288
I377
tp1902
a(I288
I377
I289
I378
tp1903
a(I289
I378
I290
I380
tp1904
a(I290
I380
I290
I381
tp1905
a(I290
I381
I291
I382
tp1906
a(I291
I382
I291
I383
tp1907
a(I291
I383
I291
I385
tp1908
a(I291
I385
I291
I386
tp1909
a(I291
I386
I291
I388
tp1910
a(I291
I388
I291
I392
tp1911
a(I291
I392
I291
I395
tp1912
a(I291
I395
I291
I397
tp1913
a(I291
I397
I289
I400
tp1914
a(I289
I400
I288
I402
tp1915
a(I288
I402
I286
I404
tp1916
a(I286
I404
I282
I405
tp1917
a(I282
I405
I280
I406
tp1918
a(I280
I406
I277
I406
tp1919
a(I277
I406
I273
I406
tp1920
a(I273
I406
I269
I406
tp1921
a(I269
I406
I265
I406
tp1922
a(I265
I406
I262
I406
tp1923
a(I262
I406
I260
I406
tp1924
a(I260
I406
I257
I406
tp1925
a(I257
I406
I256
I406
tp1926
a(I256
I406
I256
I405
tp1927
a(I256
I405
I257
I405
tp1928
a(I257
I405
I260
I403
tp1929
a(I260
I403
I261
I403
tp1930
a(I261
I403
I263
I401
tp1931
a(I263
I401
I265
I400
tp1932
a(I265
I400
I268
I400
tp1933
a(I268
I400
I269
I399
tp1934
a(I269
I399
I273
I399
tp1935
a(I273
I399
I275
I398
tp1936
a(I275
I398
I277
I398
tp1937
a(I277
I398
I278
I398
tp1938
a(I278
I398
I279
I398
tp1939
a(I279
I398
I280
I398
tp1940
a(I280
I398
I281
I398
tp1941
a(I281
I398
I282
I398
tp1942
a(I282
I398
I283
I398
tp1943
a(I283
I398
I284
I398
tp1944
a(I284
I398
I285
I398
tp1945
atp1946
a(g243
I1
(lp1947
(I302
I370
I302
I372
tp1948
a(I302
I372
I302
I374
tp1949
a(I302
I374
I302
I375
tp1950
a(I302
I375
I302
I378
tp1951
a(I302
I378
I300
I380
tp1952
a(I300
I380
I298
I382
tp1953
a(I298
I382
I297
I385
tp1954
a(I297
I385
I296
I389
tp1955
a(I296
I389
I295
I393
tp1956
a(I295
I393
I292
I399
tp1957
a(I292
I399
I290
I403
tp1958
a(I290
I403
I288
I408
tp1959
a(I288
I408
I285
I413
tp1960
a(I285
I413
I284
I418
tp1961
a(I284
I418
I284
I424
tp1962
a(I284
I424
I284
I432
tp1963
a(I284
I432
I284
I438
tp1964
a(I284
I438
I284
I445
tp1965
a(I284
I445
I286
I453
tp1966
a(I286
I453
I287
I458
tp1967
a(I287
I458
I288
I463
tp1968
a(I288
I463
I289
I466
tp1969
a(I289
I466
I289
I468
tp1970
a(I289
I468
I289
I470
tp1971
a(I289
I470
I289
I471
tp1972
a(I289
I471
I289
I472
tp1973
a(I289
I472
I289
I473
tp1974
a(I289
I473
I288
I473
tp1975
a(I288
I473
I285
I472
tp1976
a(I285
I472
I280
I470
tp1977
a(I280
I470
I276
I469
tp1978
a(I276
I469
I269
I465
tp1979
a(I269
I465
I259
I460
tp1980
a(I259
I460
I248
I454
tp1981
a(I248
I454
I233
I446
tp1982
a(I233
I446
I210
I433
tp1983
a(I210
I433
I180
I417
tp1984
a(I180
I417
I140
I396
tp1985
a(I140
I396
I96
I373
tp1986
atp1987
a(g243
I1
(lp1988
(I253
I84
I253
I83
tp1989
a(I253
I83
I253
I82
tp1990
a(I253
I82
I253
I81
tp1991
a(I253
I81
I253
I82
tp1992
a(I253
I82
I252
I87
tp1993
a(I252
I87
I252
I91
tp1994
a(I252
I91
I250
I99
tp1995
a(I250
I99
I249
I105
tp1996
a(I249
I105
I248
I111
tp1997
a(I248
I111
I247
I116
tp1998
a(I247
I116
I245
I122
tp1999
a(I245
I122
I244
I127
tp2000
a(I244
I127
I243
I130
tp2001
a(I243
I130
I242
I132
tp2002
a(I242
I132
I241
I133
tp2003
a(I241
I133
I241
I134
tp2004
a(I241
I134
I240
I134
tp2005
a(I240
I134
I240
I135
tp2006
a(I240
I135
I239
I135
tp2007
a(I239
I135
I238
I135
tp2008
a(I238
I135
I237
I139
tp2009
a(I237
I139
I237
I142
tp2010
a(I237
I142
I236
I149
tp2011
a(I236
I149
I236
I157
tp2012
a(I236
I157
I236
I167
tp2013
a(I236
I167
I236
I180
tp2014
a(I236
I180
I236
I193
tp2015
a(I236
I193
I236
I204
tp2016
a(I236
I204
I238
I214
tp2017
a(I238
I214
I240
I223
tp2018
a(I240
I223
I243
I227
tp2019
a(I243
I227
I245
I231
tp2020
a(I245
I231
I249
I235
tp2021
a(I249
I235
I250
I236
tp2022
a(I250
I236
I251
I236
tp2023
a(I251
I236
I252
I236
tp2024
a(I252
I236
I254
I235
tp2025
a(I254
I235
I255
I232
tp2026
a(I255
I232
I259
I229
tp2027
a(I259
I229
I261
I227
tp2028
a(I261
I227
I263
I224
tp2029
a(I263
I224
I266
I223
tp2030
a(I266
I223
I269
I222
tp2031
a(I269
I222
I271
I222
tp2032
a(I271
I222
I273
I222
tp2033
a(I273
I222
I275
I222
tp2034
a(I275
I222
I277
I223
tp2035
a(I277
I223
I281
I226
tp2036
a(I281
I226
I285
I228
tp2037
a(I285
I228
I296
I233
tp2038
a(I296
I233
I303
I237
tp2039
a(I303
I237
I311
I240
tp2040
a(I311
I240
I320
I242
tp2041
a(I320
I242
I328
I244
tp2042
a(I328
I244
I333
I244
tp2043
a(I333
I244
I339
I244
tp2044
a(I339
I244
I342
I244
tp2045
a(I342
I244
I346
I243
tp2046
a(I346
I243
I348
I241
tp2047
a(I348
I241
I351
I238
tp2048
a(I351
I238
I353
I235
tp2049
a(I353
I235
I356
I229
tp2050
a(I356
I229
I360
I224
tp2051
a(I360
I224
I364
I218
tp2052
a(I364
I218
I368
I210
tp2053
a(I368
I210
I371
I204
tp2054
a(I371
I204
I374
I199
tp2055
a(I374
I199
I376
I193
tp2056
a(I376
I193
I377
I189
tp2057
a(I377
I189
I380
I183
tp2058
a(I380
I183
I380
I181
tp2059
a(I380
I181
I381
I180
tp2060
a(I381
I180
I381
I179
tp2061
a(I381
I179
I381
I178
tp2062
a(I381
I178
I381
I177
tp2063
a(I381
I177
I381
I175
tp2064
a(I381
I175
I377
I170
tp2065
a(I377
I170
I373
I165
tp2066
a(I373
I165
I370
I160
tp2067
a(I370
I160
I365
I155
tp2068
a(I365
I155
I360
I150
tp2069
a(I360
I150
I354
I143
tp2070
a(I354
I143
I349
I138
tp2071
a(I349
I138
I344
I134
tp2072
a(I344
I134
I338
I130
tp2073
a(I338
I130
I335
I128
tp2074
a(I335
I128
I333
I127
tp2075
a(I333
I127
I331
I125
tp2076
a(I331
I125
I330
I124
tp2077
a(I330
I124
I329
I124
tp2078
a(I329
I124
I328
I124
tp2079
a(I328
I124
I326
I124
tp2080
a(I326
I124
I323
I125
tp2081
a(I323
I125
I320
I127
tp2082
a(I320
I127
I316
I131
tp2083
a(I316
I131
I313
I134
tp2084
a(I313
I134
I308
I138
tp2085
a(I308
I138
I303
I142
tp2086
a(I303
I142
I299
I145
tp2087
a(I299
I145
I296
I148
tp2088
a(I296
I148
I293
I150
tp2089
a(I293
I150
I292
I151
tp2090
a(I292
I151
I291
I151
tp2091
a(I291
I151
I291
I150
tp2092
a(I291
I150
I291
I148
tp2093
a(I291
I148
I291
I147
tp2094
a(I291
I147
I291
I146
tp2095
a(I291
I146
I290
I145
tp2096
a(I290
I145
I290
I146
tp2097
a(I290
I146
I290
I151
tp2098
a(I290
I151
I290
I164
tp2099
a(I290
I164
I292
I174
tp2100
atp2101
a(g243
I1
(lp2102
(I516
I285
I516
I284
tp2103
atp2104
a.